
libdfs.so: formato do arquivo elf32-i386


Desmontagem da seção .note.gnu.build-id:

00000114 <.note.gnu.build-id>:
 114:	04 00                	add    $0x0,%al
 116:	00 00                	add    %al,(%eax)
 118:	14 00                	adc    $0x0,%al
 11a:	00 00                	add    %al,(%eax)
 11c:	03 00                	add    (%eax),%eax
 11e:	00 00                	add    %al,(%eax)
 120:	47                   	inc    %edi
 121:	4e                   	dec    %esi
 122:	55                   	push   %ebp
 123:	00 bd da 89 fd b3    	add    %bh,-0x4c027626(%ebp)
 129:	e8 3f 48 20 bf       	call   bf20496d <_end+0xbf1e98bd>
 12e:	61                   	popa   
 12f:	d4 f4                	aam    $0xf4
 131:	36                   	ss
 132:	6a ec                	push   $0xffffffec
 134:	a8 eb                	test   $0xeb,%al
 136:	13                   	.byte 0x13
 137:	92                   	xchg   %eax,%edx

Desmontagem da seção .gnu.hash:

00000138 <.gnu.hash>:
 138:	11 00                	adc    %eax,(%eax)
 13a:	00 00                	add    %al,(%eax)
 13c:	17                   	pop    %ss
 13d:	00 00                	add    %al,(%eax)
 13f:	00 08                	add    %cl,(%eax)
 141:	00 00                	add    %al,(%eax)
 143:	00 08                	add    %cl,(%eax)
 145:	00 00                	add    %al,(%eax)
 147:	00 85 78 e8 1a 18    	add    %al,0x181ae878(%ebp)
 14d:	1a 80 4e 68 00 8a    	sbb    -0x75ff97b2(%eax),%al
 153:	00 00                	add    %al,(%eax)
 155:	02 02                	add    (%edx),%al
 157:	28 00                	sub    %al,(%eax)
 159:	02 10                	add    (%eax),%dl
 15b:	00 2c 20             	add    %ch,(%eax,%eiz,1)
 15e:	18 89 22 14 0a 03    	sbb    %cl,0x30a1422(%ecx)
 164:	04 0c                	add    $0xc,%al
 166:	29 c3                	sub    %eax,%ebx
 168:	17                   	pop    %ss
 169:	00 00                	add    %al,(%eax)
 16b:	00 1b                	add    %bl,(%ebx)
 16d:	00 00                	add    %al,(%eax)
 16f:	00 1f                	add    %bl,(%edi)
 171:	00 00                	add    %al,(%eax)
 173:	00 22                	add    %ah,(%edx)
 175:	00 00                	add    %al,(%eax)
 177:	00 24 00             	add    %ah,(%eax,%eax,1)
 17a:	00 00                	add    %al,(%eax)
 17c:	29 00                	sub    %eax,(%eax)
 17e:	00 00                	add    %al,(%eax)
 180:	2a 00                	sub    (%eax),%al
 182:	00 00                	add    %al,(%eax)
 184:	2b 00                	sub    (%eax),%eax
 186:	00 00                	add    %al,(%eax)
 188:	2e 00 00             	add    %al,%cs:(%eax)
 18b:	00 00                	add    %al,(%eax)
 18d:	00 00                	add    %al,(%eax)
 18f:	00 2f                	add    %ch,(%edi)
 191:	00 00                	add    %al,(%eax)
 193:	00 30                	add    %dh,(%eax)
 195:	00 00                	add    %al,(%eax)
 197:	00 33                	add    %dh,(%ebx)
 199:	00 00                	add    %al,(%eax)
 19b:	00 00                	add    %al,(%eax)
 19d:	00 00                	add    %al,(%eax)
 19f:	00 36                	add    %dh,(%esi)
	...
 1a9:	00 00                	add    %al,(%eax)
 1ab:	00 a2 bf 43 27 14    	add    %ah,0x142743bf(%edx)
 1b1:	77 3d                	ja     1f0 <_init-0x1234>
 1b3:	14 18                	adc    $0x18,%al
 1b5:	ac                   	lods   %ds:(%esi),%al
 1b6:	b8 d6 89 74 1e       	mov    $0x1e7489d6,%eax
 1bb:	9f                   	lahf   
 1bc:	f2 b5 02             	repnz mov $0x2,%ch
 1bf:	00 7a 89             	add    %bh,-0x77(%edx)
 1c2:	ac                   	lods   %ds:(%esi),%al
 1c3:	1c ea                	sbb    $0xea,%al
 1c5:	d3 ef                	shr    %cl,%edi
 1c7:	0e                   	push   %cs
 1c8:	2d 99 4b 01 d0       	sub    $0xd0014b99,%eax
 1cd:	e5 a5                	in     $0xa5,%eax
 1cf:	b5 16                	mov    $0x16,%ch
 1d1:	47                   	inc    %edi
 1d2:	78 5f                	js     233 <_init-0x11f1>
 1d4:	b9 8d f1 0e 36       	mov    $0x360ef18d,%ecx
 1d9:	8b 75 ec             	mov    -0x14(%ebp),%esi
 1dc:	d9 71 58             	fnstenv 0x58(%ecx)
 1df:	1c 1c                	sbb    $0x1c,%al
 1e1:	53                   	push   %ebx
 1e2:	cc                   	int3   
 1e3:	72 3a                	jb     21f <_init-0x1205>
 1e5:	be a2 13 0c 4e       	mov    $0x4e0c13a2,%esi
 1ea:	a4                   	movsb  %ds:(%esi),%es:(%edi)
 1eb:	37                   	aaa    
 1ec:	ba e3 92 7c f1       	mov    $0xf17c92e3,%edx
 1f1:	eb 68                	jmp    25b <_init-0x11c9>
 1f3:	e0 7d                	loopne 272 <_init-0x11b2>
 1f5:	71 33                	jno    22a <_init-0x11fa>
 1f7:	6b 69 b1 a6          	imul   $0xffffffa6,-0x4f(%ecx),%ebp
 1fb:	ff                   	(bad)  
 1fc:	ea 99 ea 0f 42 45 d5 	ljmp   $0xd545,$0x420fea99
 203:	ec                   	in     (%dx),%al
 204:	51                   	push   %ecx
 205:	26                   	es
 206:	3d 74 ff c2 b3       	cmp    $0xb3c2ff74,%eax
 20b:	c4                   	(bad)  
 20c:	ff                   	(bad)  
 20d:	b8 da 33 24 bb       	mov    $0xbb2433da,%eax
 212:	94                   	xchg   %eax,%esp
 213:	da ca                	fcmove %st(2),%st
 215:	8a 34 a3             	mov    (%ebx,%eiz,4),%dh
 218:	57                   	push   %edi
 219:	b3 81                	mov    $0x81,%bl
 21b:	7e ba                	jle    1d7 <_init-0x124d>
 21d:	74 a8                	je     1c7 <_init-0x125d>
 21f:	dd a4 d3 a6 da d3 21 	frstor 0x21d3daa6(%ebx,%edx,8)
 226:	d2 dd                	rcr    %cl,%ch
 228:	22 09                	and    (%ecx),%cl
 22a:	5e                   	pop    %esi
 22b:	0c d8                	or     $0xd8,%al
 22d:	ac                   	lods   %ds:(%esi),%al
 22e:	a4                   	movsb  %ds:(%esi),%es:(%edi)
 22f:	f3 00 1b             	repz add %bl,(%ebx)
 232:	33 e1                	xor    %ecx,%esp
 234:	03 6b e0             	add    -0x20(%ebx),%ebp
 237:	04                   	.byte 0x4

Desmontagem da seção .dynsym:

00000238 <.dynsym>:
	...
 248:	1c 00                	sbb    $0x0,%al
	...
 252:	00 00                	add    %al,(%eax)
 254:	20 00                	and    %al,(%eax)
 256:	00 00                	add    %al,(%eax)
 258:	d7                   	xlat   %ds:(%ebx)
	...
 261:	00 00                	add    %al,(%eax)
 263:	00 12                	add    %dl,(%edx)
 265:	00 00                	add    %al,(%eax)
 267:	00 c6                	add    %al,%dh
 269:	02 00                	add    (%eax),%al
	...
 273:	00 12                	add    %dl,(%edx)
 275:	00 00                	add    %al,(%eax)
 277:	00 43 06             	add    %al,0x6(%ebx)
	...
 282:	00 00                	add    %al,(%eax)
 284:	10 00                	adc    %al,(%eax)
 286:	00 00                	add    %al,(%eax)
 288:	52                   	push   %edx
	...
 291:	00 00                	add    %al,(%eax)
 293:	00 22                	add    %ah,(%edx)
 295:	00 00                	add    %al,(%eax)
 297:	00 bd 02 00 00 00    	add    %bh,0x2(%ebp)
 29d:	00 00                	add    %al,(%eax)
 29f:	00 00                	add    %al,(%eax)
 2a1:	00 00                	add    %al,(%eax)
 2a3:	00 12                	add    %dl,(%edx)
 2a5:	00 00                	add    %al,(%eax)
 2a7:	00 d2                	add    %dl,%dl
 2a9:	06                   	push   %es
	...
 2b2:	00 00                	add    %al,(%eax)
 2b4:	12 00                	adc    (%eax),%al
 2b6:	00 00                	add    %al,(%eax)
 2b8:	b6 02                	mov    $0x2,%dh
	...
 2c2:	00 00                	add    %al,(%eax)
 2c4:	12 00                	adc    (%eax),%al
 2c6:	00 00                	add    %al,(%eax)
 2c8:	9f                   	lahf   
 2c9:	06                   	push   %es
	...
 2d2:	00 00                	add    %al,(%eax)
 2d4:	12 00                	adc    (%eax),%al
 2d6:	00 00                	add    %al,(%eax)
 2d8:	e0 02                	loopne 2dc <_init-0x1148>
	...
 2e2:	00 00                	add    %al,(%eax)
 2e4:	12 00                	adc    (%eax),%al
 2e6:	00 00                	add    %al,(%eax)
 2e8:	01 00                	add    %eax,(%eax)
	...
 2f2:	00 00                	add    %al,(%eax)
 2f4:	20 00                	and    %al,(%eax)
 2f6:	00 00                	add    %al,(%eax)
 2f8:	da 06                	fiaddl (%esi)
	...
 302:	00 00                	add    %al,(%eax)
 304:	12 00                	adc    (%eax),%al
 306:	00 00                	add    %al,(%eax)
 308:	f5                   	cmc    
 309:	01 00                	add    %eax,(%eax)
	...
 313:	00 12                	add    %dl,(%edx)
 315:	00 00                	add    %al,(%eax)
 317:	00 9f 01 00 00 00    	add    %bl,0x1(%edi)
 31d:	00 00                	add    %al,(%eax)
 31f:	00 00                	add    %al,(%eax)
 321:	00 00                	add    %al,(%eax)
 323:	00 12                	add    %dl,(%edx)
 325:	00 00                	add    %al,(%eax)
 327:	00 aa 01 00 00 00    	add    %ch,0x1(%edx)
 32d:	00 00                	add    %al,(%eax)
 32f:	00 00                	add    %al,(%eax)
 331:	00 00                	add    %al,(%eax)
 333:	00 12                	add    %dl,(%edx)
 335:	00 00                	add    %al,(%eax)
 337:	00 c4                	add    %al,%ah
	...
 341:	00 00                	add    %al,(%eax)
 343:	00 12                	add    %dl,(%edx)
 345:	00 00                	add    %al,(%eax)
 347:	00 0b                	add    %cl,(%ebx)
 349:	02 00                	add    (%eax),%al
	...
 353:	00 12                	add    %dl,(%edx)
 355:	00 00                	add    %al,(%eax)
 357:	00 80 03 00 00 00    	add    %al,0x3(%eax)
 35d:	00 00                	add    %al,(%eax)
 35f:	00 00                	add    %al,(%eax)
 361:	00 00                	add    %al,(%eax)
 363:	00 12                	add    %dl,(%edx)
 365:	00 00                	add    %al,(%eax)
 367:	00 f5                	add    %dh,%ch
 369:	03 00                	add    (%eax),%eax
	...
 373:	00 12                	add    %dl,(%edx)
 375:	00 00                	add    %al,(%eax)
 377:	00 61 00             	add    %ah,0x0(%ecx)
	...
 382:	00 00                	add    %al,(%eax)
 384:	20 00                	and    %al,(%eax)
 386:	00 00                	add    %al,(%eax)
 388:	5c                   	pop    %esp
 389:	04 00                	add    $0x0,%al
	...
 393:	00 12                	add    %dl,(%edx)
 395:	00 00                	add    %al,(%eax)
 397:	00 38                	add    %bh,(%eax)
	...
 3a1:	00 00                	add    %al,(%eax)
 3a3:	00 20                	add    %ah,(%eax)
 3a5:	00 00                	add    %al,(%eax)
 3a7:	00 33                	add    %dh,(%ebx)
 3a9:	03 00                	add    (%eax),%eax
 3ab:	00 6b 1b             	add    %ch,0x1b(%ebx)
 3ae:	00 00                	add    %al,(%eax)
 3b0:	d8 01                	fadds  (%ecx)
 3b2:	00 00                	add    %al,(%eax)
 3b4:	12 00                	adc    (%eax),%al
 3b6:	0b 00                	or     (%eax),%eax
 3b8:	5d                   	pop    %ebp
 3b9:	01 00                	add    %eax,(%eax)
 3bb:	00 44 b0 01          	add    %al,0x1(%eax,%esi,4)
 3bf:	00 04 00             	add    %al,(%eax,%eax,1)
 3c2:	00 00                	add    %al,(%eax)
 3c4:	11 00                	adc    %eax,(%eax)
 3c6:	1b 00                	sbb    (%eax),%eax
 3c8:	48                   	dec    %eax
 3c9:	02 00                	add    (%eax),%al
 3cb:	00 a1 19 00 00 05    	add    %ah,0x5000019(%ecx)
 3d1:	00 00                	add    %al,(%eax)
 3d3:	00 12                	add    %dl,(%edx)
 3d5:	00 0b                	add    %cl,(%ebx)
 3d7:	00 67 04             	add    %ah,0x4(%edi)
 3da:	00 00                	add    %al,(%eax)
 3dc:	9f                   	lahf   
 3dd:	1e                   	push   %ds
 3de:	00 00                	add    %al,(%eax)
 3e0:	18 00                	sbb    %al,(%eax)
 3e2:	00 00                	add    %al,(%eax)
 3e4:	12 00                	adc    (%eax),%al
 3e6:	0b 00                	or     (%eax),%eax
 3e8:	fa                   	cli    
 3e9:	00 00                	add    %al,(%eax)
 3eb:	00 28                	add    %ch,(%eax)
 3ed:	b0 01                	mov    $0x1,%al
 3ef:	00 04 00             	add    %al,(%eax,%eax,1)
 3f2:	00 00                	add    %al,(%eax)
 3f4:	11 00                	adc    %eax,(%eax)
 3f6:	1b 00                	sbb    (%eax),%eax
 3f8:	92                   	xchg   %eax,%edx
 3f9:	03 00                	add    (%eax),%eax
 3fb:	00 7f 1e             	add    %bh,0x1e(%edi)
 3fe:	00 00                	add    %al,(%eax)
 400:	13 00                	adc    (%eax),%eax
 402:	00 00                	add    %al,(%eax)
 404:	22 00                	and    (%eax),%al
 406:	0b 00                	or     (%eax),%eax
 408:	16                   	push   %ss
 409:	00 00                	add    %al,(%eax)
 40b:	00 ec                	add    %ch,%ah
 40d:	22 00                	and    (%eax),%al
 40f:	00 00                	add    %al,(%eax)
 411:	00 00                	add    %al,(%eax)
 413:	00 12                	add    %dl,(%edx)
 415:	00 0c 00             	add    %cl,(%eax,%eax,1)
 418:	33 01                	xor    (%ecx),%eax
 41a:	00 00                	add    %al,(%eax)
 41c:	38 b0 01 00 04 00    	cmp    %dh,0x40001(%eax)
 422:	00 00                	add    %al,(%eax)
 424:	11 00                	adc    %eax,(%eax)
 426:	1b 00                	sbb    (%eax),%eax
 428:	45                   	inc    %ebp
 429:	01 00                	add    %eax,(%eax)
 42b:	00 3c b0             	add    %bh,(%eax,%esi,4)
 42e:	01 00                	add    %eax,(%eax)
 430:	04 00                	add    $0x0,%al
 432:	00 00                	add    %al,(%eax)
 434:	11 00                	adc    %eax,(%eax)
 436:	1b 00                	sbb    (%eax),%eax
 438:	b5 01                	mov    $0x1,%ch
 43a:	00 00                	add    %al,(%eax)
 43c:	68 18 00 00 39       	push   $0x39000018
 441:	01 00                	add    %eax,(%eax)
 443:	00 12                	add    %dl,(%edx)
 445:	00 0b                	add    %cl,(%ebx)
 447:	00 10                	add    %dl,(%eax)
 449:	00 00                	add    %al,(%eax)
 44b:	00 24 14             	add    %ah,(%esp,%edx,1)
 44e:	00 00                	add    %al,(%eax)
 450:	00 00                	add    %al,(%eax)
 452:	00 00                	add    %al,(%eax)
 454:	12 00                	adc    (%eax),%al
 456:	09 00                	or     %eax,(%eax)
 458:	7d 02                	jge    45c <_init-0xfc8>
 45a:	00 00                	add    %al,(%eax)
 45c:	a6                   	cmpsb  %es:(%edi),%ds:(%esi)
 45d:	19 00                	sbb    %eax,(%eax)
 45f:	00 84 01 00 00 12 00 	add    %al,0x120000(%ecx,%eax,1)
 466:	0b 00                	or     (%eax),%eax
 468:	e6 06                	out    %al,$0x6
 46a:	00 00                	add    %al,(%eax)
 46c:	1c b0                	sbb    $0xb0,%al
 46e:	01 00                	add    %eax,(%eax)
 470:	00 00                	add    %al,(%eax)
 472:	00 00                	add    %al,(%eax)
 474:	10 00                	adc    %al,(%eax)
 476:	1b 00                	sbb    (%eax),%eax
 478:	50                   	push   %eax
 479:	01 00                	add    %eax,(%eax)
 47b:	00 40 b0             	add    %al,-0x50(%eax)
 47e:	01 00                	add    %eax,(%eax)
 480:	04 00                	add    $0x0,%al
 482:	00 00                	add    %al,(%eax)
 484:	11 00                	adc    %eax,(%eax)
 486:	1b 00                	sbb    (%eax),%eax
 488:	85 05 00 00 94 21    	test   %eax,0x21940000
 48e:	00 00                	add    %al,(%eax)
 490:	39 00                	cmp    %eax,(%eax)
 492:	00 00                	add    %al,(%eax)
 494:	12 00                	adc    (%eax),%al
 496:	0b 00                	or     (%eax),%eax
 498:	06                   	push   %es
 499:	01 00                	add    %eax,(%eax)
 49b:	00 30                	add    %dh,(%eax)
 49d:	b0 01                	mov    $0x1,%al
 49f:	00 04 00             	add    %al,(%eax,%eax,1)
 4a2:	00 00                	add    %al,(%eax)
 4a4:	11 00                	adc    %eax,(%eax)
 4a6:	1b 00                	sbb    (%eax),%eax
 4a8:	f2 06                	repnz push %es
 4aa:	00 00                	add    %al,(%eax)
 4ac:	b0 b0                	mov    $0xb0,%al
 4ae:	01 00                	add    %eax,(%eax)
 4b0:	00 00                	add    %al,(%eax)
 4b2:	00 00                	add    %al,(%eax)
 4b4:	10 00                	adc    %al,(%eax)
 4b6:	1b 00                	sbb    (%eax),%eax
 4b8:	05 05 00 00 55       	add    $0x55000005,%eax
 4bd:	20 00                	and    %al,(%eax)
 4bf:	00 44 00 00          	add    %al,0x0(%eax,%eax,1)
 4c3:	00 12                	add    %dl,(%edx)
 4c5:	00 0b                	add    %cl,(%ebx)
 4c7:	00 1d 02 00 00 43    	add    %bl,0x43000002
 4cd:	1d 00 00 59 00       	sbb    $0x590000,%eax
 4d2:	00 00                	add    %al,(%eax)
 4d4:	12 00                	adc    (%eax),%al
 4d6:	0b 00                	or     (%eax),%eax
 4d8:	f1                   	icebp  
 4d9:	02 00                	add    (%eax),%al
 4db:	00 d8                	add    %bl,%al
 4dd:	4b                   	dec    %ebx
 4de:	00 00                	add    %al,(%eax)
 4e0:	10 00                	adc    %al,(%eax)
 4e2:	00 00                	add    %al,(%eax)
 4e4:	11 00                	adc    %eax,(%eax)
 4e6:	0f 00 64 01 00       	verr   0x0(%ecx,%eax,1)
 4eb:	00 48 b0             	add    %cl,-0x50(%eax)
 4ee:	01 00                	add    %eax,(%eax)
 4f0:	04 00                	add    $0x0,%al
 4f2:	00 00                	add    %al,(%eax)
 4f4:	11 00                	adc    %eax,(%eax)
 4f6:	1b 00                	sbb    (%eax),%eax
 4f8:	df 06                	fild   (%esi)
 4fa:	00 00                	add    %al,(%eax)
 4fc:	1c b0                	sbb    $0xb0,%al
 4fe:	01 00                	add    %eax,(%eax)
 500:	00 00                	add    %al,(%eax)
 502:	00 00                	add    %al,(%eax)
 504:	10 00                	adc    %al,(%eax)
 506:	1a 00                	sbb    (%eax),%al
 508:	ce                   	into   
 509:	04 00                	add    $0x0,%al
 50b:	00 f8                	add    %bh,%al
 50d:	1e                   	push   %ds
 50e:	00 00                	add    %al,(%eax)
 510:	5d                   	pop    %ebp
 511:	01 00                	add    %eax,(%eax)
 513:	00 12                	add    %dl,(%edx)
 515:	00 0b                	add    %cl,(%ebx)
 517:	00 d9                	add    %bl,%cl
 519:	05 00 00 cd 21       	add    $0x21cd0000,%eax
 51e:	00 00                	add    %al,(%eax)
 520:	39 00                	cmp    %eax,(%eax)
 522:	00 00                	add    %al,(%eax)
 524:	12 00                	adc    (%eax),%al
 526:	0b 00                	or     (%eax),%eax
 528:	93                   	xchg   %eax,%ebx
 529:	00 00                	add    %al,(%eax)
 52b:	00 56 1e             	add    %dl,0x1e(%esi)
 52e:	00 00                	add    %al,(%eax)
 530:	29 00                	sub    %eax,(%eax)
 532:	00 00                	add    %al,(%eax)
 534:	22 00                	and    (%eax),%al
 536:	0b 00                	or     (%eax),%eax
 538:	84 00                	test   %al,(%eax)
 53a:	00 00                	add    %al,(%eax)
 53c:	36                   	ss
 53d:	1e                   	push   %ds
 53e:	00 00                	add    %al,(%eax)
 540:	1f                   	pop    %ds
 541:	00 00                	add    %al,(%eax)
 543:	00 22                	add    %ah,(%edx)
 545:	00 0b                	add    %cl,(%ebx)
 547:	00 88 04 00 00 e8    	add    %cl,-0x17fffffc(%eax)
 54d:	4b                   	dec    %ebx
 54e:	00 00                	add    %al,(%eax)
 550:	10 00                	adc    %al,(%eax)
 552:	00 00                	add    %al,(%eax)
 554:	11 00                	adc    %eax,(%eax)
 556:	0f 00 1f             	ltr    (%edi)
 559:	01 00                	add    %eax,(%eax)
 55b:	00 34 b0             	add    %dh,(%eax,%esi,4)
 55e:	01 00                	add    %eax,(%eax)
 560:	04 00                	add    $0x0,%al
 562:	00 00                	add    %al,(%eax)
 564:	11 00                	adc    %eax,(%eax)
 566:	1b 00                	sbb    (%eax),%eax
 568:	6a 01                	push   $0x1
 56a:	00 00                	add    %al,(%eax)
 56c:	0b 16                	or     (%esi),%edx
 56e:	00 00                	add    %al,(%eax)
 570:	5d                   	pop    %ebp
 571:	02 00                	add    (%eax),%al
 573:	00 12                	add    %dl,(%edx)
 575:	00 0b                	add    %cl,(%ebx)
 577:	00 75 00             	add    %dh,0x0(%ebp)
 57a:	00 00                	add    %al,(%eax)
 57c:	36                   	ss
 57d:	1e                   	push   %ds
 57e:	00 00                	add    %al,(%eax)
 580:	1f                   	pop    %ds
 581:	00 00                	add    %al,(%eax)
 583:	00 22                	add    %ah,(%edx)
 585:	00 0b                	add    %cl,(%ebx)
 587:	00 de                	add    %bl,%dh
 589:	00 00                	add    %al,(%eax)
 58b:	00 20                	add    %ah,(%eax)
 58d:	b0 01                	mov    $0x1,%al
 58f:	00 04 00             	add    %al,(%eax,%eax,1)
 592:	00 00                	add    %al,(%eax)
 594:	11 00                	adc    %eax,(%eax)
 596:	1b 00                	sbb    (%eax),%eax
 598:	fc                   	cld    
 599:	00 00                	add    %al,(%eax)
 59b:	00 2c b0             	add    %ch,(%eax,%esi,4)
 59e:	01 00                	add    %eax,(%eax)
 5a0:	04 00                	add    $0x0,%al
 5a2:	00 00                	add    %al,(%eax)
 5a4:	11 00                	adc    %eax,(%eax)
 5a6:	1b 00                	sbb    (%eax),%eax
 5a8:	0c 04                	or     $0x4,%al
 5aa:	00 00                	add    %al,(%eax)
 5ac:	5b                   	pop    %ebx
 5ad:	21 00                	and    %eax,(%eax)
 5af:	00 39                	add    %bh,(%ecx)
 5b1:	00 00                	add    %al,(%eax)
 5b3:	00 12                	add    %dl,(%edx)
 5b5:	00 0b                	add    %cl,(%ebx)
 5b7:	00 1e                	add    %bl,(%esi)
 5b9:	05 00 00 33 21       	add    $0x21330000,%eax
 5be:	00 00                	add    %al,(%eax)
 5c0:	13 00                	adc    (%eax),%eax
 5c2:	00 00                	add    %al,(%eax)
 5c4:	22 00                	and    (%eax),%al
 5c6:	0b 00                	or     (%eax),%eax
 5c8:	ec                   	in     (%dx),%al
 5c9:	00 00                	add    %al,(%eax)
 5cb:	00 24 b0             	add    %ah,(%eax,%esi,4)
 5ce:	01 00                	add    %eax,(%eax)
 5d0:	04 00                	add    $0x0,%al
 5d2:	00 00                	add    %al,(%eax)
 5d4:	11 00                	adc    %eax,(%eax)
 5d6:	1b 00                	sbb    (%eax),%eax

Desmontagem da seção .dynstr:

000005d8 <.dynstr>:
 5d8:	00 5f 5f             	add    %bl,0x5f(%edi)
 5db:	67 6d                	insl   (%dx),%es:(%di)
 5dd:	6f                   	outsl  %ds:(%esi),(%dx)
 5de:	6e                   	outsb  %ds:(%esi),(%dx)
 5df:	5f                   	pop    %edi
 5e0:	73 74                	jae    656 <_init-0xdce>
 5e2:	61                   	popa   
 5e3:	72 74                	jb     659 <_init-0xdcb>
 5e5:	5f                   	pop    %edi
 5e6:	5f                   	pop    %edi
 5e7:	00 5f 69             	add    %bl,0x69(%edi)
 5ea:	6e                   	outsb  %ds:(%esi),(%dx)
 5eb:	69 74 00 5f 66 69 6e 	imul   $0x696e6966,0x5f(%eax,%eax,1),%esi
 5f2:	69 
 5f3:	00 5f 49             	add    %bl,0x49(%edi)
 5f6:	54                   	push   %esp
 5f7:	4d                   	dec    %ebp
 5f8:	5f                   	pop    %edi
 5f9:	64                   	fs
 5fa:	65                   	gs
 5fb:	72 65                	jb     662 <_init-0xdc2>
 5fd:	67 69 73 74 65 72 54 	imul   $0x4d547265,0x74(%bp,%di),%esi
 604:	4d 
 605:	43                   	inc    %ebx
 606:	6c                   	insb   (%dx),%es:(%edi)
 607:	6f                   	outsl  %ds:(%esi),(%dx)
 608:	6e                   	outsb  %ds:(%esi),(%dx)
 609:	65                   	gs
 60a:	54                   	push   %esp
 60b:	61                   	popa   
 60c:	62 6c 65 00          	bound  %ebp,0x0(%ebp,%eiz,2)
 610:	5f                   	pop    %edi
 611:	49                   	dec    %ecx
 612:	54                   	push   %esp
 613:	4d                   	dec    %ebp
 614:	5f                   	pop    %edi
 615:	72 65                	jb     67c <_init-0xda8>
 617:	67 69 73 74 65 72 54 	imul   $0x4d547265,0x74(%bp,%di),%esi
 61e:	4d 
 61f:	43                   	inc    %ebx
 620:	6c                   	insb   (%dx),%es:(%edi)
 621:	6f                   	outsl  %ds:(%esi),(%dx)
 622:	6e                   	outsb  %ds:(%esi),(%dx)
 623:	65                   	gs
 624:	54                   	push   %esp
 625:	61                   	popa   
 626:	62 6c 65 00          	bound  %ebp,0x0(%ebp,%eiz,2)
 62a:	5f                   	pop    %edi
 62b:	5f                   	pop    %edi
 62c:	63 78 61             	arpl   %di,0x61(%eax)
 62f:	5f                   	pop    %edi
 630:	66 69 6e 61 6c 69    	imul   $0x696c,0x61(%esi),%bp
 636:	7a 65                	jp     69d <_init-0xd87>
 638:	00 5f 4a             	add    %bl,0x4a(%edi)
 63b:	76 5f                	jbe    69c <_init-0xd88>
 63d:	52                   	push   %edx
 63e:	65 67 69 73 74 65 72 	imul   $0x6c437265,%gs:0x74(%bp,%di),%esi
 645:	43 6c 
 647:	61                   	popa   
 648:	73 73                	jae    6bd <_init-0xd67>
 64a:	65                   	gs
 64b:	73 00                	jae    64d <_init-0xdd7>
 64d:	5f                   	pop    %edi
 64e:	5a                   	pop    %edx
 64f:	4e                   	dec    %esi
 650:	34 64                	xor    $0x64,%al
 652:	69 6d 33 43 32 45 6a 	imul   $0x6a453243,0x33(%ebp),%ebp
 659:	6a 6a                	push   $0x6a
 65b:	00 5f 5a             	add    %bl,0x5a(%edi)
 65e:	4e                   	dec    %esi
 65f:	34 64                	xor    $0x64,%al
 661:	69 6d 33 43 31 45 6a 	imul   $0x6a453143,0x33(%ebp),%ebp
 668:	6a 6a                	push   $0x6a
 66a:	00 5f 5a             	add    %bl,0x5a(%edi)
 66d:	4e                   	dec    %esi
 66e:	37                   	aaa    
 66f:	4a                   	dec    %edx
 670:	4e                   	dec    %esi
 671:	49                   	dec    %ecx
 672:	45                   	inc    %ebp
 673:	6e                   	outsb  %ds:(%esi),(%dx)
 674:	76 5f                	jbe    6d5 <_init-0xd4f>
 676:	31 39                	xor    %edi,(%ecx)
 678:	47                   	inc    %edi
 679:	65                   	gs
 67a:	74 49                	je     6c5 <_init-0xd5f>
 67c:	6e                   	outsb  %ds:(%esi),(%dx)
 67d:	74 41                	je     6c0 <_init-0xd64>
 67f:	72 72                	jb     6f3 <_init-0xd31>
 681:	61                   	popa   
 682:	79 45                	jns    6c9 <_init-0xd5b>
 684:	6c                   	insb   (%dx),%es:(%edi)
 685:	65                   	gs
 686:	6d                   	insl   (%dx),%es:(%edi)
 687:	65 6e                	outsb  %gs:(%esi),(%dx)
 689:	74 73                	je     6fe <_init-0xd26>
 68b:	45                   	inc    %ebp
 68c:	50                   	push   %eax
 68d:	31 30                	xor    %esi,(%eax)
 68f:	5f                   	pop    %edi
 690:	6a 69                	push   $0x69
 692:	6e                   	outsb  %ds:(%esi),(%dx)
 693:	74 41                	je     6d6 <_init-0xd4e>
 695:	72 72                	jb     709 <_init-0xd1b>
 697:	61                   	popa   
 698:	79 50                	jns    6ea <_init-0xd3a>
 69a:	68 00 63 75 64       	push   $0x64756300
 69f:	61                   	popa   
 6a0:	47                   	inc    %edi
 6a1:	65                   	gs
 6a2:	74 45                	je     6e9 <_init-0xd3b>
 6a4:	72 72                	jb     718 <_init-0xd0c>
 6a6:	6f                   	outsl  %ds:(%esi),(%dx)
 6a7:	72 53                	jb     6fc <_init-0xd28>
 6a9:	74 72                	je     71d <_init-0xd07>
 6ab:	69 6e 67 00 70 72 69 	imul   $0x69727000,0x67(%esi),%ebp
 6b2:	6e                   	outsb  %ds:(%esi),(%dx)
 6b3:	74 66                	je     71b <_init-0xd09>
 6b5:	00 6e 69             	add    %ch,0x69(%esi)
 6b8:	76 65                	jbe    71f <_init-0xd05>
 6ba:	6c                   	insb   (%dx),%es:(%edi)
 6bb:	50                   	push   %eax
 6bc:	72 65                	jb     723 <_init-0xd01>
 6be:	46                   	inc    %esi
 6bf:	69 78 6f 73 00 6e 69 	imul   $0x696e0073,0x6f(%eax),%edi
 6c6:	76 65                	jbe    72d <_init-0xcf7>
 6c8:	6c                   	insb   (%dx),%es:(%edi)
 6c9:	44                   	inc    %esp
 6ca:	65                   	gs
 6cb:	73 65                	jae    732 <_init-0xcf2>
 6cd:	6a 61                	push   $0x61
 6cf:	64 6f                	outsl  %fs:(%esi),(%dx)
 6d1:	00 4e 00             	add    %cl,0x0(%esi)
 6d4:	6e                   	outsb  %ds:(%esi),(%dx)
 6d5:	50                   	push   %eax
 6d6:	72 65                	jb     73d <_init-0xce7>
 6d8:	46                   	inc    %esi
 6d9:	69 78 6f 73 00 71 74 	imul   $0x74710073,0x6f(%eax),%edi
 6e0:	64                   	fs
 6e1:	5f                   	pop    %edi
 6e2:	70 72                	jo     756 <_init-0xcce>
 6e4:	65 66 69 78 6f 73 5f 	imul   $0x5f73,%gs:0x6f(%eax),%di
 6eb:	73 65                	jae    752 <_init-0xcd2>
 6ed:	67 75 6e             	addr16 jne 75e <_init-0xcc6>
 6f0:	64 6f                	outsl  %fs:(%esi),(%dx)
 6f2:	5f                   	pop    %edi
 6f3:	64                   	fs
 6f4:	66                   	data16
 6f5:	73 00                	jae    6f7 <_init-0xd2d>
 6f7:	71 74                	jno    76d <_init-0xcb7>
 6f9:	64                   	fs
 6fa:	5f                   	pop    %edi
 6fb:	70 72                	jo     76f <_init-0xcb5>
 6fd:	65 66 69 78 6f 73 5f 	imul   $0x5f73,%gs:0x6f(%eax),%di
 704:	6c                   	insb   (%dx),%es:(%edi)
 705:	6f                   	outsl  %ds:(%esi),(%dx)
 706:	63 61 69             	arpl   %sp,0x69(%ecx)
 709:	73 00                	jae    70b <_init-0xd19>
 70b:	70 61                	jo     76e <_init-0xcb6>
 70d:	74 68                	je     777 <_init-0xcad>
 70f:	5f                   	pop    %edi
 710:	73 65                	jae    777 <_init-0xcad>
 712:	63 6f 6e             	arpl   %bp,0x6e(%edi)
 715:	64                   	fs
 716:	5f                   	pop    %edi
 717:	64                   	fs
 718:	66                   	data16
 719:	73 5f                	jae    77a <_init-0xcaa>
 71b:	64 00 71 74          	add    %dh,%fs:0x74(%ecx)
 71f:	64                   	fs
 720:	5f                   	pop    %edi
 721:	73 6f                	jae    792 <_init-0xc92>
 723:	6c                   	insb   (%dx),%es:(%edi)
 724:	73 5f                	jae    785 <_init-0xc9f>
 726:	64 00 6d 65          	add    %ch,%fs:0x65(%ebp)
 72a:	6c                   	insb   (%dx),%es:(%edi)
 72b:	68 6f 72 5f 73       	push   $0x735f726f
 730:	6f                   	outsl  %ds:(%esi),(%dx)
 731:	6c                   	insb   (%dx),%es:(%edi)
 732:	5f                   	pop    %edi
 733:	64 00 70 61          	add    %dh,%fs:0x61(%eax)
 737:	74 68                	je     7a1 <_init-0xc83>
 739:	5f                   	pop    %edi
 73a:	64 00 6d 61          	add    %ch,%fs:0x61(%ebp)
 73e:	74 5f                	je     79f <_init-0xc85>
 740:	64 00 4a 61          	add    %cl,%fs:0x61(%edx)
 744:	76 61                	jbe    7a7 <_init-0xc7d>
 746:	5f                   	pop    %edi
 747:	44                   	inc    %esp
 748:	46                   	inc    %esi
 749:	53                   	push   %ebx
 74a:	5f                   	pop    %edi
 74b:	31 53 6f             	xor    %edx,0x6f(%ebx)
 74e:	6c                   	insb   (%dx),%es:(%edi)
 74f:	76 69                	jbe    7ba <_init-0xc6a>
 751:	6e                   	outsb  %ds:(%esi),(%dx)
 752:	67 5f                	addr16 pop %edi
 754:	30 30                	xor    %dh,(%eax)
 756:	30 32                	xor    %dh,(%edx)
 758:	34 44                	xor    $0x44,%al
 75a:	46                   	inc    %esi
 75b:	53                   	push   %ebx
 75c:	5f                   	pop    %edi
 75d:	31 69 6e             	xor    %ebp,0x6e(%ecx)
 760:	74 65                	je     7c7 <_init-0xc5d>
 762:	72 6d                	jb     7d1 <_init-0xc53>
 764:	65 64 69 61 72 69 6f 	gs imul $0x735f6f69,%fs:%gs:0x72(%ecx),%esp
 76b:	5f 73 
 76d:	65                   	gs
 76e:	74 44                	je     7b4 <_init-0xc70>
 770:	61                   	popa   
 771:	74 61                	je     7d4 <_init-0xc50>
 773:	5f                   	pop    %edi
 774:	31 63 00             	xor    %esp,0x0(%ebx)
 777:	63 75 64             	arpl   %si,0x64(%ebp)
 77a:	61                   	popa   
 77b:	4d                   	dec    %ebp
 77c:	61                   	popa   
 77d:	6c                   	insb   (%dx),%es:(%edi)
 77e:	6c                   	insb   (%dx),%es:(%edi)
 77f:	6f                   	outsl  %ds:(%esi),(%dx)
 780:	63 00                	arpl   %ax,(%eax)
 782:	63 75 64             	arpl   %si,0x64(%ebp)
 785:	61                   	popa   
 786:	4d                   	dec    %ebp
 787:	65                   	gs
 788:	6d                   	insl   (%dx),%es:(%edi)
 789:	63 70 79             	arpl   %si,0x79(%eax)
 78c:	00 4a 61             	add    %cl,0x61(%edx)
 78f:	76 61                	jbe    7f2 <_init-0xc32>
 791:	5f                   	pop    %edi
 792:	44                   	inc    %esp
 793:	46                   	inc    %esi
 794:	53                   	push   %ebx
 795:	5f                   	pop    %edi
 796:	31 53 6f             	xor    %edx,0x6f(%ebx)
 799:	6c                   	insb   (%dx),%es:(%edi)
 79a:	76 69                	jbe    805 <_init-0xc1f>
 79c:	6e                   	outsb  %ds:(%esi),(%dx)
 79d:	67 5f                	addr16 pop %edi
 79f:	30 30                	xor    %dh,(%eax)
 7a1:	30 32                	xor    %dh,(%edx)
 7a3:	34 44                	xor    $0x44,%al
 7a5:	46                   	inc    %esi
 7a6:	53                   	push   %ebx
 7a7:	5f                   	pop    %edi
 7a8:	31 69 6e             	xor    %ebp,0x6e(%ecx)
 7ab:	74 65                	je     812 <_init-0xc12>
 7ad:	72 6d                	jb     81c <_init-0xc08>
 7af:	65 64 69 61 72 69 6f 	gs imul $0x6b5f6f69,%fs:%gs:0x72(%ecx),%esp
 7b6:	5f 6b 
 7b8:	5f                   	pop    %edi
 7b9:	31 64 66 73          	xor    %esp,0x73(%esi,%eiz,2)
 7bd:	5f                   	pop    %edi
 7be:	31 69 6e             	xor    %ebp,0x6e(%ecx)
 7c1:	74 65                	je     828 <_init-0xbfc>
 7c3:	72 6d                	jb     832 <_init-0xbf2>
 7c5:	65 64 69 61 72 69 6f 	gs imul $0x63006f69,%fs:%gs:0x72(%ecx),%esp
 7cc:	00 63 
 7ce:	75 64                	jne    834 <_init-0xbf0>
 7d0:	61                   	popa   
 7d1:	44                   	inc    %esp
 7d2:	65                   	gs
 7d3:	76 69                	jbe    83e <_init-0xbe6>
 7d5:	63 65 53             	arpl   %sp,0x53(%ebp)
 7d8:	79 6e                	jns    848 <_init-0xbdc>
 7da:	63 68 72             	arpl   %bp,0x72(%eax)
 7dd:	6f                   	outsl  %ds:(%esi),(%dx)
 7de:	6e                   	outsb  %ds:(%esi),(%dx)
 7df:	69 7a 65 00 63 75 64 	imul   $0x64756300,0x65(%edx),%edi
 7e6:	61                   	popa   
 7e7:	43                   	inc    %ebx
 7e8:	6f                   	outsl  %ds:(%esi),(%dx)
 7e9:	6e                   	outsb  %ds:(%esi),(%dx)
 7ea:	66 69 67 75 72 65    	imul   $0x6572,0x75(%edi),%sp
 7f0:	43                   	inc    %ebx
 7f1:	61                   	popa   
 7f2:	6c                   	insb   (%dx),%es:(%edi)
 7f3:	6c                   	insb   (%dx),%es:(%edi)
 7f4:	00 5f 5a             	add    %bl,0x5a(%edi)
 7f7:	32 32                	xor    (%edx),%dh
 7f9:	64                   	fs
 7fa:	66                   	data16
 7fb:	73 5f                	jae    85c <_init-0xbc8>
 7fd:	69 6e 74 65 72 6d 65 	imul   $0x656d7265,0x74(%esi),%ebp
 804:	64 69 61 72 69 6f 5f 	imul   $0x635f6f69,%fs:0x72(%ecx),%esp
 80b:	63 
 80c:	75 64                	jne    872 <_init-0xbb2>
 80e:	61                   	popa   
 80f:	69 50 69 53 5f 53 5f 	imul   $0x5f535f53,0x69(%eax),%edx
 816:	69 69 69 69 69 53 5f 	imul   $0x5f536969,0x69(%ecx),%ebp
 81d:	53                   	push   %ebx
 81e:	5f                   	pop    %edi
 81f:	00 4a 61             	add    %cl,0x61(%edx)
 822:	76 61                	jbe    885 <_init-0xb9f>
 824:	5f                   	pop    %edi
 825:	44                   	inc    %esp
 826:	46                   	inc    %esi
 827:	53                   	push   %ebx
 828:	5f                   	pop    %edi
 829:	31 53 6f             	xor    %edx,0x6f(%ebx)
 82c:	6c                   	insb   (%dx),%es:(%edi)
 82d:	76 69                	jbe    898 <_init-0xb8c>
 82f:	6e                   	outsb  %ds:(%esi),(%dx)
 830:	67 5f                	addr16 pop %edi
 832:	30 30                	xor    %dh,(%eax)
 834:	30 32                	xor    %dh,(%edx)
 836:	34 44                	xor    $0x44,%al
 838:	46                   	inc    %esi
 839:	53                   	push   %ebx
 83a:	5f                   	pop    %edi
 83b:	31 69 6e             	xor    %ebp,0x6e(%ecx)
 83e:	74 65                	je     8a5 <_init-0xb7f>
 840:	72 6d                	jb     8af <_init-0xb75>
 842:	65 64 69 61 72 69 6f 	gs imul $0x645f6f69,%fs:%gs:0x72(%ecx),%esp
 849:	5f 64 
 84b:	66                   	data16
 84c:	73 5f                	jae    8ad <_init-0xb77>
 84e:	31 66 69             	xor    %esp,0x69(%esi)
 851:	6e                   	outsb  %ds:(%esi),(%dx)
 852:	61                   	popa   
 853:	6c                   	insb   (%dx),%es:(%edi)
 854:	00 4a 61             	add    %cl,0x61(%edx)
 857:	76 61                	jbe    8ba <_init-0xb6a>
 859:	5f                   	pop    %edi
 85a:	44                   	inc    %esp
 85b:	46                   	inc    %esi
 85c:	53                   	push   %ebx
 85d:	5f                   	pop    %edi
 85e:	31 53 6f             	xor    %edx,0x6f(%ebx)
 861:	6c                   	insb   (%dx),%es:(%edi)
 862:	76 69                	jbe    8cd <_init-0xb57>
 864:	6e                   	outsb  %ds:(%esi),(%dx)
 865:	67 5f                	addr16 pop %edi
 867:	30 30                	xor    %dh,(%eax)
 869:	30 32                	xor    %dh,(%edx)
 86b:	34 44                	xor    $0x44,%al
 86d:	46                   	inc    %esi
 86e:	53                   	push   %ebx
 86f:	5f                   	pop    %edi
 870:	31 69 6e             	xor    %ebp,0x6e(%ecx)
 873:	74 65                	je     8da <_init-0xb4a>
 875:	72 6d                	jb     8e4 <_init-0xb40>
 877:	65 64 69 61 72 69 6f 	gs imul $0x675f6f69,%fs:%gs:0x72(%ecx),%esp
 87e:	5f 67 
 880:	65                   	gs
 881:	74 51                	je     8d4 <_init-0xb50>
 883:	54                   	push   %esp
 884:	53                   	push   %ebx
 885:	6f                   	outsl  %ds:(%esi),(%dx)
 886:	6c                   	insb   (%dx),%es:(%edi)
 887:	75 74                	jne    8fd <_init-0xb27>
 889:	69 6f 6e 73 00 6d 61 	imul   $0x616d0073,0x6e(%edi),%ebp
 890:	6c                   	insb   (%dx),%es:(%edi)
 891:	6c                   	insb   (%dx),%es:(%edi)
 892:	6f                   	outsl  %ds:(%esi),(%dx)
 893:	63 00                	arpl   %ax,(%eax)
 895:	63 75 64             	arpl   %si,0x64(%ebp)
 898:	61                   	popa   
 899:	46                   	inc    %esi
 89a:	72 65                	jb     901 <_init-0xb23>
 89c:	65 00 5f 5f          	add    %bl,%gs:0x5f(%edi)
 8a0:	63 75 64             	arpl   %si,0x64(%ebp)
 8a3:	61                   	popa   
 8a4:	55                   	push   %ebp
 8a5:	6e                   	outsb  %ds:(%esi),(%dx)
 8a6:	72 65                	jb     90d <_init-0xb17>
 8a8:	67 69 73 74 65 72 46 	imul   $0x61467265,0x74(%bp,%di),%esi
 8af:	61 
 8b0:	74 42                	je     8f4 <_init-0xb30>
 8b2:	69 6e 61 72 79 00 5f 	imul   $0x5f007972,0x61(%esi),%ebp
 8b9:	5f                   	pop    %edi
 8ba:	63 75 64             	arpl   %si,0x64(%ebp)
 8bd:	61                   	popa   
 8be:	49                   	dec    %ecx
 8bf:	6e                   	outsb  %ds:(%esi),(%dx)
 8c0:	69 74 4d 6f 64 75 6c 	imul   $0x656c7564,0x6f(%ebp,%ecx,2),%esi
 8c7:	65 
 8c8:	00 5f 5f             	add    %bl,0x5f(%edi)
 8cb:	66 61                	popaw  
 8cd:	74 62                	je     931 <_init-0xaf3>
 8cf:	69 6e 77 72 61 70 5f 	imul   $0x5f706172,0x77(%esi),%ebp
 8d6:	34 30                	xor    $0x30,%al
 8d8:	5f                   	pop    %edi
 8d9:	74 6d                	je     948 <_init-0xadc>
 8db:	70 78                	jo     955 <_init-0xacf>
 8dd:	66                   	data16
 8de:	74 5f                	je     93f <_init-0xae5>
 8e0:	30 30                	xor    %dh,(%eax)
 8e2:	30 30                	xor    %dh,(%eax)
 8e4:	31 35 33 65 5f 30    	xor    %esi,0x305f6533
 8ea:	30 30                	xor    %dh,(%eax)
 8ec:	30 30                	xor    %dh,(%eax)
 8ee:	30 30                	xor    %dh,(%eax)
 8f0:	30 5f 36             	xor    %bl,0x36(%edi)
 8f3:	5f                   	pop    %edi
 8f4:	70 72                	jo     968 <_init-0xabc>
 8f6:	6f                   	outsl  %ds:(%esi),(%dx)
 8f7:	78 79                	js     972 <_init-0xab2>
 8f9:	5f                   	pop    %edi
 8fa:	63 70 70             	arpl   %si,0x70(%eax)
 8fd:	31 5f 69             	xor    %ebx,0x69(%edi)
 900:	69 5f 35 62 62 37 64 	imul   $0x64376262,0x35(%edi),%ebx
 907:	66                   	data16
 908:	63 61 00             	arpl   %sp,0x0(%ecx)
 90b:	5f                   	pop    %edi
 90c:	5a                   	pop    %edx
 90d:	35 36 5f 5f 64       	xor    $0x645f5f36,%eax
 912:	65                   	gs
 913:	76 69                	jbe    97e <_init-0xaa6>
 915:	63 65 5f             	arpl   %sp,0x5f(%ebp)
 918:	73 74                	jae    98e <_init-0xa96>
 91a:	75 62                	jne    97e <_init-0xaa6>
 91c:	5f                   	pop    %edi
 91d:	5f                   	pop    %edi
 91e:	5a                   	pop    %edx
 91f:	32 32                	xor    (%edx),%dh
 921:	64                   	fs
 922:	66                   	data16
 923:	73 5f                	jae    984 <_init-0xaa0>
 925:	69 6e 74 65 72 6d 65 	imul   $0x656d7265,0x74(%esi),%ebp
 92c:	64 69 61 72 69 6f 5f 	imul   $0x635f6f69,%fs:0x72(%ecx),%esp
 933:	63 
 934:	75 64                	jne    99a <_init-0xa8a>
 936:	61                   	popa   
 937:	69 50 69 53 5f 53 5f 	imul   $0x5f535f53,0x69(%eax),%edx
 93e:	69 69 69 69 69 53 5f 	imul   $0x5f536969,0x69(%ecx),%ebp
 945:	53                   	push   %ebx
 946:	5f                   	pop    %edi
 947:	69 50 69 53 5f 53 5f 	imul   $0x5f535f53,0x69(%eax),%edx
 94e:	69 69 69 69 69 53 5f 	imul   $0x5f536969,0x69(%ecx),%ebp
 955:	53                   	push   %ebx
 956:	5f                   	pop    %edi
 957:	00 63 75             	add    %ah,0x75(%ebx)
 95a:	64                   	fs
 95b:	61                   	popa   
 95c:	53                   	push   %ebx
 95d:	65                   	gs
 95e:	74 75                	je     9d5 <_init-0xa4f>
 960:	70 41                	jo     9a3 <_init-0xa81>
 962:	72 67                	jb     9cb <_init-0xa59>
 964:	75 6d                	jne    9d3 <_init-0xa51>
 966:	65 6e                	outsb  %gs:(%esi),(%dx)
 968:	74 00                	je     96a <_init-0xaba>
 96a:	5f                   	pop    %edi
 96b:	5a                   	pop    %edx
 96c:	4e                   	dec    %esi
 96d:	36                   	ss
 96e:	34 5f                	xor    $0x5f,%al
 970:	47                   	inc    %edi
 971:	4c                   	dec    %esp
 972:	4f                   	dec    %edi
 973:	42                   	inc    %edx
 974:	41                   	inc    %ecx
 975:	4c                   	dec    %esp
 976:	5f                   	pop    %edi
 977:	5f                   	pop    %edi
 978:	4e                   	dec    %esi
 979:	5f                   	pop    %edi
 97a:	5f                   	pop    %edi
 97b:	34 30                	xor    $0x30,%al
 97d:	5f                   	pop    %edi
 97e:	74 6d                	je     9ed <_init-0xa37>
 980:	70 78                	jo     9fa <_init-0xa2a>
 982:	66                   	data16
 983:	74 5f                	je     9e4 <_init-0xa40>
 985:	30 30                	xor    %dh,(%eax)
 987:	30 30                	xor    %dh,(%eax)
 989:	31 35 33 65 5f 30    	xor    %esi,0x305f6533
 98f:	30 30                	xor    %dh,(%eax)
 991:	30 30                	xor    %dh,(%eax)
 993:	30 30                	xor    %dh,(%eax)
 995:	30 5f 36             	xor    %bl,0x36(%edi)
 998:	5f                   	pop    %edi
 999:	70 72                	jo     a0d <_init-0xa17>
 99b:	6f                   	outsl  %ds:(%esi),(%dx)
 99c:	78 79                	js     a17 <_init-0xa0d>
 99e:	5f                   	pop    %edi
 99f:	63 70 70             	arpl   %si,0x70(%eax)
 9a2:	31 5f 69             	xor    %ebx,0x69(%edi)
 9a5:	69 5f 35 62 62 37 64 	imul   $0x64376262,0x35(%edi),%ebx
 9ac:	66                   	data16
 9ad:	63 61 31             	arpl   %sp,0x31(%ecx)
 9b0:	30 63 75             	xor    %ah,0x75(%ebx)
 9b3:	64                   	fs
 9b4:	61                   	popa   
 9b5:	4c                   	dec    %esp
 9b6:	61                   	popa   
 9b7:	75 6e                	jne    a27 <_init-0x9fd>
 9b9:	63 68 49             	arpl   %bp,0x49(%eax)
 9bc:	63 45 45             	arpl   %ax,0x45(%ebp)
 9bf:	39 63 75             	cmp    %esp,0x75(%ebx)
 9c2:	64                   	fs
 9c3:	61                   	popa   
 9c4:	45                   	inc    %ebp
 9c5:	72 72                	jb     a39 <_init-0x9eb>
 9c7:	6f                   	outsl  %ds:(%esi),(%dx)
 9c8:	72 50                	jb     a1a <_init-0xa0a>
 9ca:	54                   	push   %esp
 9cb:	5f                   	pop    %edi
 9cc:	00 5f 5f             	add    %bl,0x5f(%edi)
 9cf:	63 75 64             	arpl   %si,0x64(%ebp)
 9d2:	61                   	popa   
 9d3:	52                   	push   %edx
 9d4:	65 67 69 73 74 65 72 	imul   $0x75467265,%gs:0x74(%bp,%di),%esi
 9db:	46 75 
 9dd:	6e                   	outsb  %ds:(%esi),(%dx)
 9de:	63 74 69 6f          	arpl   %si,0x6f(%ecx,%ebp,2)
 9e2:	6e                   	outsb  %ds:(%esi),(%dx)
 9e3:	00 5f 5f             	add    %bl,0x5f(%edi)
 9e6:	63 75 64             	arpl   %si,0x64(%ebp)
 9e9:	61                   	popa   
 9ea:	52                   	push   %edx
 9eb:	65 67 69 73 74 65 72 	imul   $0x694c7265,%gs:0x74(%bp,%di),%esi
 9f2:	4c 69 
 9f4:	6e                   	outsb  %ds:(%esi),(%dx)
 9f5:	6b 65 64 42          	imul   $0x42,0x64(%ebp),%esp
 9f9:	69 6e 61 72 79 5f 34 	imul   $0x345f7972,0x61(%esi),%ebp
 a00:	30 5f 74             	xor    %bl,0x74(%edi)
 a03:	6d                   	insl   (%dx),%es:(%edi)
 a04:	70 78                	jo     a7e <_init-0x9a6>
 a06:	66                   	data16
 a07:	74 5f                	je     a68 <_init-0x9bc>
 a09:	30 30                	xor    %dh,(%eax)
 a0b:	30 30                	xor    %dh,(%eax)
 a0d:	31 35 33 65 5f 30    	xor    %esi,0x305f6533
 a13:	30 30                	xor    %dh,(%eax)
 a15:	30 30                	xor    %dh,(%eax)
 a17:	30 30                	xor    %dh,(%eax)
 a19:	30 5f 36             	xor    %bl,0x36(%edi)
 a1c:	5f                   	pop    %edi
 a1d:	70 72                	jo     a91 <_init-0x993>
 a1f:	6f                   	outsl  %ds:(%esi),(%dx)
 a20:	78 79                	js     a9b <_init-0x989>
 a22:	5f                   	pop    %edi
 a23:	63 70 70             	arpl   %si,0x70(%eax)
 a26:	31 5f 69             	xor    %ebx,0x69(%edi)
 a29:	69 5f 35 62 62 37 64 	imul   $0x64376262,0x35(%edi),%ebx
 a30:	66                   	data16
 a31:	63 61 00             	arpl   %sp,0x0(%ecx)
 a34:	63 75 64             	arpl   %si,0x64(%ebp)
 a37:	61                   	popa   
 a38:	4c                   	dec    %esp
 a39:	61                   	popa   
 a3a:	75 6e                	jne    aaa <_init-0x97a>
 a3c:	63 68 00             	arpl   %bp,0x0(%eax)
 a3f:	5f                   	pop    %edi
 a40:	5a                   	pop    %edx
 a41:	31 34 63             	xor    %esi,(%ebx,%eiz,2)
 a44:	61                   	popa   
 a45:	6c                   	insb   (%dx),%es:(%edi)
 a46:	6c                   	insb   (%dx),%es:(%edi)
 a47:	5f                   	pop    %edi
 a48:	64                   	fs
 a49:	66                   	data16
 a4a:	73 5f                	jae    aab <_init-0x979>
 a4c:	66 69 6e 61 6c 69    	imul   $0x696c,0x61(%esi),%bp
 a52:	69 69 50 69 53 5f 69 	imul   $0x695f5369,0x50(%ecx),%ebp
 a59:	69 53 5f 53 5f 69 00 	imul   $0x695f53,0x5f(%ebx),%edx
 a60:	5f                   	pop    %edi
 a61:	5f                   	pop    %edi
 a62:	66 61                	popaw  
 a64:	74 62                	je     ac8 <_init-0x95c>
 a66:	69 6e 77 72 61 70 5f 	imul   $0x5f706172,0x77(%esi),%ebp
 a6d:	34 34                	xor    $0x34,%al
 a6f:	5f                   	pop    %edi
 a70:	74 6d                	je     adf <_init-0x945>
 a72:	70 78                	jo     aec <_init-0x938>
 a74:	66                   	data16
 a75:	74 5f                	je     ad6 <_init-0x94e>
 a77:	30 30                	xor    %dh,(%eax)
 a79:	30 30                	xor    %dh,(%eax)
 a7b:	31 35 36 34 5f 30    	xor    %esi,0x305f3436
 a81:	30 30                	xor    %dh,(%eax)
 a83:	30 30                	xor    %dh,(%eax)
 a85:	30 30                	xor    %dh,(%eax)
 a87:	30 5f 36             	xor    %bl,0x36(%edi)
 a8a:	5f                   	pop    %edi
 a8b:	64                   	fs
 a8c:	66                   	data16
 a8d:	73 5f                	jae    aee <_init-0x936>
 a8f:	66 69 6e 61 6c 5f    	imul   $0x5f6c,0x61(%esi),%bp
 a95:	63 70 70             	arpl   %si,0x70(%eax)
 a98:	31 5f 69             	xor    %ebx,0x69(%edi)
 a9b:	69 5f 39 62 32 35 38 	imul   $0x38353262,0x39(%edi),%ebx
 aa2:	31 36                	xor    %esi,(%esi)
 aa4:	64 00 5f 5a          	add    %bl,%fs:0x5a(%edi)
 aa8:	33 38                	xor    (%eax),%edi
 aaa:	5f                   	pop    %edi
 aab:	5f                   	pop    %edi
 aac:	64                   	fs
 aad:	65                   	gs
 aae:	76 69                	jbe    b19 <_init-0x90b>
 ab0:	63 65 5f             	arpl   %sp,0x5f(%ebp)
 ab3:	73 74                	jae    b29 <_init-0x8fb>
 ab5:	75 62                	jne    b19 <_init-0x90b>
 ab7:	5f                   	pop    %edi
 ab8:	5f                   	pop    %edi
 ab9:	5a                   	pop    %edx
 aba:	39 64 66 73          	cmp    %esp,0x73(%esi,%eiz,2)
 abe:	5f                   	pop    %edi
 abf:	66 69 6e 61 6c 69    	imul   $0x696c,0x61(%esi),%bp
 ac5:	50                   	push   %eax
 ac6:	69 53 5f 69 69 53 5f 	imul   $0x5f536969,0x5f(%ebx),%edx
 acd:	53                   	push   %ebx
 ace:	5f                   	pop    %edi
 acf:	69 69 50 69 53 5f 69 	imul   $0x695f5369,0x50(%ecx),%ebp
 ad6:	69 53 5f 53 5f 69 00 	imul   $0x695f53,0x5f(%ebx),%edx
 add:	5f                   	pop    %edi
 ade:	5a                   	pop    %edx
 adf:	39 64 66 73          	cmp    %esp,0x73(%esi,%eiz,2)
 ae3:	5f                   	pop    %edi
 ae4:	66 69 6e 61 6c 69    	imul   $0x696c,0x61(%esi),%bp
 aea:	50                   	push   %eax
 aeb:	69 53 5f 69 69 53 5f 	imul   $0x5f536969,0x5f(%ebx),%edx
 af2:	53                   	push   %ebx
 af3:	5f                   	pop    %edi
 af4:	69 00 5f 5a 4e 36    	imul   $0x364e5a5f,(%eax),%eax
 afa:	38 5f 47             	cmp    %bl,0x47(%edi)
 afd:	4c                   	dec    %esp
 afe:	4f                   	dec    %edi
 aff:	42                   	inc    %edx
 b00:	41                   	inc    %ecx
 b01:	4c                   	dec    %esp
 b02:	5f                   	pop    %edi
 b03:	5f                   	pop    %edi
 b04:	4e                   	dec    %esi
 b05:	5f                   	pop    %edi
 b06:	5f                   	pop    %edi
 b07:	34 34                	xor    $0x34,%al
 b09:	5f                   	pop    %edi
 b0a:	74 6d                	je     b79 <_init-0x8ab>
 b0c:	70 78                	jo     b86 <_init-0x89e>
 b0e:	66                   	data16
 b0f:	74 5f                	je     b70 <_init-0x8b4>
 b11:	30 30                	xor    %dh,(%eax)
 b13:	30 30                	xor    %dh,(%eax)
 b15:	31 35 36 34 5f 30    	xor    %esi,0x305f3436
 b1b:	30 30                	xor    %dh,(%eax)
 b1d:	30 30                	xor    %dh,(%eax)
 b1f:	30 30                	xor    %dh,(%eax)
 b21:	30 5f 36             	xor    %bl,0x36(%edi)
 b24:	5f                   	pop    %edi
 b25:	64                   	fs
 b26:	66                   	data16
 b27:	73 5f                	jae    b88 <_init-0x89c>
 b29:	66 69 6e 61 6c 5f    	imul   $0x5f6c,0x61(%esi),%bp
 b2f:	63 70 70             	arpl   %si,0x70(%eax)
 b32:	31 5f 69             	xor    %ebx,0x69(%edi)
 b35:	69 5f 39 62 32 35 38 	imul   $0x38353262,0x39(%edi),%ebx
 b3c:	31 36                	xor    %esi,(%esi)
 b3e:	64 31 30             	xor    %esi,%fs:(%eax)
 b41:	63 75 64             	arpl   %si,0x64(%ebp)
 b44:	61                   	popa   
 b45:	4c                   	dec    %esp
 b46:	61                   	popa   
 b47:	75 6e                	jne    bb7 <_init-0x86d>
 b49:	63 68 49             	arpl   %bp,0x49(%eax)
 b4c:	63 45 45             	arpl   %ax,0x45(%ebp)
 b4f:	39 63 75             	cmp    %esp,0x75(%ebx)
 b52:	64                   	fs
 b53:	61                   	popa   
 b54:	45                   	inc    %ebp
 b55:	72 72                	jb     bc9 <_init-0x85b>
 b57:	6f                   	outsl  %ds:(%esi),(%dx)
 b58:	72 50                	jb     baa <_init-0x87a>
 b5a:	54                   	push   %esp
 b5b:	5f                   	pop    %edi
 b5c:	00 5f 5f             	add    %bl,0x5f(%edi)
 b5f:	63 75 64             	arpl   %si,0x64(%ebp)
 b62:	61                   	popa   
 b63:	52                   	push   %edx
 b64:	65 67 69 73 74 65 72 	imul   $0x694c7265,%gs:0x74(%bp,%di),%esi
 b6b:	4c 69 
 b6d:	6e                   	outsb  %ds:(%esi),(%dx)
 b6e:	6b 65 64 42          	imul   $0x42,0x64(%ebp),%esp
 b72:	69 6e 61 72 79 5f 34 	imul   $0x345f7972,0x61(%esi),%ebp
 b79:	34 5f                	xor    $0x5f,%al
 b7b:	74 6d                	je     bea <_init-0x83a>
 b7d:	70 78                	jo     bf7 <_init-0x82d>
 b7f:	66                   	data16
 b80:	74 5f                	je     be1 <_init-0x843>
 b82:	30 30                	xor    %dh,(%eax)
 b84:	30 30                	xor    %dh,(%eax)
 b86:	31 35 36 34 5f 30    	xor    %esi,0x305f3436
 b8c:	30 30                	xor    %dh,(%eax)
 b8e:	30 30                	xor    %dh,(%eax)
 b90:	30 30                	xor    %dh,(%eax)
 b92:	30 5f 36             	xor    %bl,0x36(%edi)
 b95:	5f                   	pop    %edi
 b96:	64                   	fs
 b97:	66                   	data16
 b98:	73 5f                	jae    bf9 <_init-0x82b>
 b9a:	66 69 6e 61 6c 5f    	imul   $0x5f6c,0x61(%esi),%bp
 ba0:	63 70 70             	arpl   %si,0x70(%eax)
 ba3:	31 5f 69             	xor    %ebx,0x69(%edi)
 ba6:	69 5f 39 62 32 35 38 	imul   $0x38353262,0x39(%edi),%ebx
 bad:	31 36                	xor    %esi,(%esi)
 baf:	64 00 5f 5f          	add    %bl,%fs:0x5f(%edi)
 bb3:	63 75 64             	arpl   %si,0x64(%ebp)
 bb6:	61                   	popa   
 bb7:	52                   	push   %edx
 bb8:	65 67 69 73 74 65 72 	imul   $0x694c7265,%gs:0x74(%bp,%di),%esi
 bbf:	4c 69 
 bc1:	6e                   	outsb  %ds:(%esi),(%dx)
 bc2:	6b 65 64 42          	imul   $0x42,0x64(%ebp),%esp
 bc6:	69 6e 61 72 79 5f 36 	imul   $0x365f7972,0x61(%esi),%ebp
 bcd:	36                   	ss
 bce:	5f                   	pop    %edi
 bcf:	74 6d                	je     c3e <_init-0x7e6>
 bd1:	70 78                	jo     c4b <_init-0x7d9>
 bd3:	66                   	data16
 bd4:	74 5f                	je     c35 <_init-0x7ef>
 bd6:	30 30                	xor    %dh,(%eax)
 bd8:	30 30                	xor    %dh,(%eax)
 bda:	31 35 63 36 5f 30    	xor    %esi,0x305f3663
 be0:	30 30                	xor    %dh,(%eax)
 be2:	30 30                	xor    %dh,(%eax)
 be4:	30 30                	xor    %dh,(%eax)
 be6:	30 5f 31             	xor    %bl,0x31(%edi)
 be9:	32 5f 63             	xor    0x63(%edi),%bl
 bec:	75 64                	jne    c52 <_init-0x7d2>
 bee:	61                   	popa   
 bef:	5f                   	pop    %edi
 bf0:	64                   	fs
 bf1:	65                   	gs
 bf2:	76 69                	jbe    c5d <_init-0x7c7>
 bf4:	63 65 5f             	arpl   %sp,0x5f(%ebp)
 bf7:	72 75                	jb     c6e <_init-0x7b6>
 bf9:	6e                   	outsb  %ds:(%esi),(%dx)
 bfa:	74 69                	je     c65 <_init-0x7bf>
 bfc:	6d                   	insl   (%dx),%es:(%edi)
 bfd:	65                   	gs
 bfe:	5f                   	pop    %edi
 bff:	63 6f 6d             	arpl   %bp,0x6d(%edi)
 c02:	70 75                	jo     c79 <_init-0x7ab>
 c04:	74 65                	je     c6b <_init-0x7b9>
 c06:	5f                   	pop    %edi
 c07:	35 30 5f 63 70       	xor    $0x70635f30,%eax
 c0c:	70 31                	jo     c3f <_init-0x7e5>
 c0e:	5f                   	pop    %edi
 c0f:	69 69 5f 35 66 36 39 	imul   $0x39366635,0x5f(%ecx),%ebp
 c16:	39 33                	cmp    %esi,(%ebx)
 c18:	65                   	gs
 c19:	66                   	data16
 c1a:	00 5f 5f             	add    %bl,0x5f(%edi)
 c1d:	66 61                	popaw  
 c1f:	74 62                	je     c83 <_init-0x7a1>
 c21:	69 6e 77 72 61 70 5f 	imul   $0x5f706172,0x77(%esi),%ebp
 c28:	36                   	ss
 c29:	36                   	ss
 c2a:	5f                   	pop    %edi
 c2b:	74 6d                	je     c9a <_init-0x78a>
 c2d:	70 78                	jo     ca7 <_init-0x77d>
 c2f:	66                   	data16
 c30:	74 5f                	je     c91 <_init-0x793>
 c32:	30 30                	xor    %dh,(%eax)
 c34:	30 30                	xor    %dh,(%eax)
 c36:	31 35 63 36 5f 30    	xor    %esi,0x305f3663
 c3c:	30 30                	xor    %dh,(%eax)
 c3e:	30 30                	xor    %dh,(%eax)
 c40:	30 30                	xor    %dh,(%eax)
 c42:	30 5f 31             	xor    %bl,0x31(%edi)
 c45:	32 5f 63             	xor    0x63(%edi),%bl
 c48:	75 64                	jne    cae <_init-0x776>
 c4a:	61                   	popa   
 c4b:	5f                   	pop    %edi
 c4c:	64                   	fs
 c4d:	65                   	gs
 c4e:	76 69                	jbe    cb9 <_init-0x76b>
 c50:	63 65 5f             	arpl   %sp,0x5f(%ebp)
 c53:	72 75                	jb     cca <_init-0x75a>
 c55:	6e                   	outsb  %ds:(%esi),(%dx)
 c56:	74 69                	je     cc1 <_init-0x763>
 c58:	6d                   	insl   (%dx),%es:(%edi)
 c59:	65                   	gs
 c5a:	5f                   	pop    %edi
 c5b:	63 6f 6d             	arpl   %bp,0x6d(%edi)
 c5e:	70 75                	jo     cd5 <_init-0x74f>
 c60:	74 65                	je     cc7 <_init-0x75d>
 c62:	5f                   	pop    %edi
 c63:	35 30 5f 63 70       	xor    $0x70635f30,%eax
 c68:	70 31                	jo     c9b <_init-0x789>
 c6a:	5f                   	pop    %edi
 c6b:	69 69 5f 35 66 36 39 	imul   $0x39366635,0x5f(%ecx),%ebp
 c72:	39 33                	cmp    %esi,(%ebx)
 c74:	65                   	gs
 c75:	66                   	data16
 c76:	00 5f 5f             	add    %bl,0x5f(%edi)
 c79:	63 75 64             	arpl   %si,0x64(%ebp)
 c7c:	61                   	popa   
 c7d:	52                   	push   %edx
 c7e:	65 67 69 73 74 65 72 	imul   $0x61467265,%gs:0x74(%bp,%di),%esi
 c85:	46 61 
 c87:	74 42                	je     ccb <_init-0x759>
 c89:	69 6e 61 72 79 00 6c 	imul   $0x6c007972,0x61(%esi),%ebp
 c90:	69 62 63 75 64 61 72 	imul   $0x72616475,0x63(%edx),%esp
 c97:	74 2e                	je     cc7 <_init-0x75d>
 c99:	73 6f                	jae    d0a <_init-0x71a>
 c9b:	2e                   	cs
 c9c:	36                   	ss
 c9d:	2e                   	cs
 c9e:	35 00 6c 69 62       	xor    $0x62696c00,%eax
 ca3:	63 2e                	arpl   %bp,(%esi)
 ca5:	73 6f                	jae    d16 <_init-0x70e>
 ca7:	2e 36 00 5f 5f       	cs add %bl,%cs:%ss:0x5f(%edi)
 cac:	63 78 61             	arpl   %di,0x61(%eax)
 caf:	5f                   	pop    %edi
 cb0:	61                   	popa   
 cb1:	74 65                	je     d18 <_init-0x70c>
 cb3:	78 69                	js     d1e <_init-0x706>
 cb5:	74 00                	je     cb7 <_init-0x76d>
 cb7:	5f                   	pop    %edi
 cb8:	65                   	gs
 cb9:	64                   	fs
 cba:	61                   	popa   
 cbb:	74 61                	je     d1e <_init-0x706>
 cbd:	00 5f 5f             	add    %bl,0x5f(%edi)
 cc0:	62 73 73             	bound  %esi,0x73(%ebx)
 cc3:	5f                   	pop    %edi
 cc4:	73 74                	jae    d3a <_init-0x6ea>
 cc6:	61                   	popa   
 cc7:	72 74                	jb     d3d <_init-0x6e7>
 cc9:	00 5f 65             	add    %bl,0x65(%edi)
 ccc:	6e                   	outsb  %ds:(%esi),(%dx)
 ccd:	64 00 6c 69 62       	add    %ch,%fs:0x62(%ecx,%ebp,2)
 cd2:	64                   	fs
 cd3:	66                   	data16
 cd4:	73 2e                	jae    d04 <_init-0x720>
 cd6:	73 6f                	jae    d47 <_init-0x6dd>
 cd8:	00 47 4c             	add    %al,0x4c(%edi)
 cdb:	49                   	dec    %ecx
 cdc:	42                   	inc    %edx
 cdd:	43                   	inc    %ebx
 cde:	5f                   	pop    %edi
 cdf:	32 2e                	xor    (%esi),%ch
 ce1:	31 2e                	xor    %ebp,(%esi)
 ce3:	33 00                	xor    (%eax),%eax
 ce5:	47                   	inc    %edi
 ce6:	4c                   	dec    %esp
 ce7:	49                   	dec    %ecx
 ce8:	42                   	inc    %edx
 ce9:	43                   	inc    %ebx
 cea:	5f                   	pop    %edi
 ceb:	32 2e                	xor    (%esi),%ch
 ced:	30 00                	xor    %al,(%eax)

Desmontagem da seção .gnu.version:

00000cf0 <.gnu.version>:
 cf0:	00 00                	add    %al,(%eax)
 cf2:	00 00                	add    %al,(%eax)
 cf4:	02 00                	add    (%eax),%al
 cf6:	00 00                	add    %al,(%eax)
 cf8:	00 00                	add    %al,(%eax)
 cfa:	03 00                	add    (%eax),%eax
 cfc:	00 00                	add    %al,(%eax)
 cfe:	03 00                	add    (%eax),%eax
 d00:	02 00                	add    (%eax),%al
 d02:	00 00                	add    %al,(%eax)
 d04:	00 00                	add    %al,(%eax)
 d06:	00 00                	add    %al,(%eax)
 d08:	02 00                	add    (%eax),%al
	...
 d1e:	01 00                	add    %eax,(%eax)
 d20:	01 00                	add    %eax,(%eax)
 d22:	01 00                	add    %eax,(%eax)
 d24:	01 00                	add    %eax,(%eax)
 d26:	01 00                	add    %eax,(%eax)
 d28:	01 00                	add    %eax,(%eax)
 d2a:	01 00                	add    %eax,(%eax)
 d2c:	01 00                	add    %eax,(%eax)
 d2e:	01 00                	add    %eax,(%eax)
 d30:	01 00                	add    %eax,(%eax)
 d32:	01 00                	add    %eax,(%eax)
 d34:	01 00                	add    %eax,(%eax)
 d36:	01 00                	add    %eax,(%eax)
 d38:	01 00                	add    %eax,(%eax)
 d3a:	01 00                	add    %eax,(%eax)
 d3c:	01 00                	add    %eax,(%eax)
 d3e:	01 00                	add    %eax,(%eax)
 d40:	01 00                	add    %eax,(%eax)
 d42:	01 00                	add    %eax,(%eax)
 d44:	01 00                	add    %eax,(%eax)
 d46:	01 00                	add    %eax,(%eax)
 d48:	01 00                	add    %eax,(%eax)
 d4a:	01 00                	add    %eax,(%eax)
 d4c:	01 00                	add    %eax,(%eax)
 d4e:	01 00                	add    %eax,(%eax)
 d50:	01 00                	add    %eax,(%eax)
 d52:	01 00                	add    %eax,(%eax)
 d54:	01 00                	add    %eax,(%eax)
 d56:	01 00                	add    %eax,(%eax)
 d58:	01 00                	add    %eax,(%eax)
 d5a:	01 00                	add    %eax,(%eax)
 d5c:	01 00                	add    %eax,(%eax)
 d5e:	01 00                	add    %eax,(%eax)
 d60:	01 00                	add    %eax,(%eax)
 d62:	01 00                	add    %eax,(%eax)

Desmontagem da seção .gnu.version_r:

00000d64 <.gnu.version_r>:
 d64:	01 00                	add    %eax,(%eax)
 d66:	02 00                	add    (%eax),%al
 d68:	c8 06 00 00          	enter  $0x6,$0x0
 d6c:	10 00                	adc    %al,(%eax)
 d6e:	00 00                	add    %al,(%eax)
 d70:	00 00                	add    %al,(%eax)
 d72:	00 00                	add    %al,(%eax)
 d74:	73 1f                	jae    d95 <_init-0x68f>
 d76:	69 09 00 00 03 00    	imul   $0x30000,(%ecx),%ecx
 d7c:	01 07                	add    %eax,(%edi)
 d7e:	00 00                	add    %al,(%eax)
 d80:	10 00                	adc    %al,(%eax)
 d82:	00 00                	add    %al,(%eax)
 d84:	10 69 69             	adc    %ch,0x69(%ecx)
 d87:	0d 00 00 02 00       	or     $0x20000,%eax
 d8c:	0d 07 00 00 00       	or     $0x7,%eax
 d91:	00 00                	add    %al,(%eax)
	...

Desmontagem da seção .rel.dyn:

00000d94 <.rel.dyn>:
     d94:	c2 15 00             	ret    $0x15
     d97:	00 08                	add    %cl,(%eax)
     d99:	00 00                	add    %al,(%eax)
     d9b:	00 f4                	add    %dh,%ah
     d9d:	15 00 00 08 00       	adc    $0x80000,%eax
     da2:	00 00                	add    %al,(%eax)
     da4:	88 16                	mov    %dl,(%esi)
     da6:	00 00                	add    %al,(%eax)
     da8:	08 00                	or     %al,(%eax)
     daa:	00 00                	add    %al,(%eax)
     dac:	ee                   	out    %al,(%dx)
     dad:	16                   	push   %ss
     dae:	00 00                	add    %al,(%eax)
     db0:	08 00                	or     %al,(%eax)
     db2:	00 00                	add    %al,(%eax)
     db4:	27                   	daa    
     db5:	17                   	pop    %ss
     db6:	00 00                	add    %al,(%eax)
     db8:	08 00                	or     %al,(%eax)
     dba:	00 00                	add    %al,(%eax)
     dbc:	60                   	pusha  
     dbd:	17                   	pop    %ss
     dbe:	00 00                	add    %al,(%eax)
     dc0:	08 00                	or     %al,(%eax)
     dc2:	00 00                	add    %al,(%eax)
     dc4:	90                   	nop
     dc5:	17                   	pop    %ss
     dc6:	00 00                	add    %al,(%eax)
     dc8:	08 00                	or     %al,(%eax)
     dca:	00 00                	add    %al,(%eax)
     dcc:	c0 17 00             	rclb   $0x0,(%edi)
     dcf:	00 08                	add    %cl,(%eax)
     dd1:	00 00                	add    %al,(%eax)
     dd3:	00 0d 18 00 00 08    	add    %cl,0x8000018
     dd9:	00 00                	add    %al,(%eax)
     ddb:	00 5a 18             	add    %bl,0x18(%edx)
     dde:	00 00                	add    %al,(%eax)
     de0:	08 00                	or     %al,(%eax)
     de2:	00 00                	add    %al,(%eax)
     de4:	74 18                	je     dfe <_init-0x626>
     de6:	00 00                	add    %al,(%eax)
     de8:	08 00                	or     %al,(%eax)
     dea:	00 00                	add    %al,(%eax)
     dec:	2c 1a                	sub    $0x1a,%al
     dee:	00 00                	add    %al,(%eax)
     df0:	08 00                	or     %al,(%eax)
     df2:	00 00                	add    %al,(%eax)
     df4:	70 1a                	jo     e10 <_init-0x614>
     df6:	00 00                	add    %al,(%eax)
     df8:	08 00                	or     %al,(%eax)
     dfa:	00 00                	add    %al,(%eax)
     dfc:	31 1b                	xor    %ebx,(%ebx)
     dfe:	00 00                	add    %al,(%eax)
     e00:	08 00                	or     %al,(%eax)
     e02:	00 00                	add    %al,(%eax)
     e04:	40                   	inc    %eax
     e05:	1b 00                	sbb    (%eax),%eax
     e07:	00 08                	add    %cl,(%eax)
     e09:	00 00                	add    %al,(%eax)
     e0b:	00 4a 1b             	add    %cl,0x1b(%edx)
     e0e:	00 00                	add    %al,(%eax)
     e10:	08 00                	or     %al,(%eax)
     e12:	00 00                	add    %al,(%eax)
     e14:	2d 1d 00 00 08       	sub    $0x800001d,%eax
     e19:	00 00                	add    %al,(%eax)
     e1b:	00 a6 1d 00 00 08    	add    %ah,0x800001d(%esi)
     e21:	00 00                	add    %al,(%eax)
     e23:	00 e9                	add    %ch,%cl
     e25:	1d 00 00 08 00       	sbb    $0x80000,%eax
     e2a:	00 00                	add    %al,(%eax)
     e2c:	f1                   	icebp  
     e2d:	1d 00 00 08 00       	sbb    $0x80000,%eax
     e32:	00 00                	add    %al,(%eax)
     e34:	14 1e                	adc    $0x1e,%al
     e36:	00 00                	add    %al,(%eax)
     e38:	08 00                	or     %al,(%eax)
     e3a:	00 00                	add    %al,(%eax)
     e3c:	1c 1e                	sbb    $0x1e,%al
     e3e:	00 00                	add    %al,(%eax)
     e40:	08 00                	or     %al,(%eax)
     e42:	00 00                	add    %al,(%eax)
     e44:	2b 1e                	sub    (%esi),%ebx
     e46:	00 00                	add    %al,(%eax)
     e48:	08 00                	or     %al,(%eax)
     e4a:	00 00                	add    %al,(%eax)
     e4c:	99                   	cltd   
     e4d:	1e                   	push   %ds
     e4e:	00 00                	add    %al,(%eax)
     e50:	08 00                	or     %al,(%eax)
     e52:	00 00                	add    %al,(%eax)
     e54:	be 1e 00 00 08       	mov    $0x800001e,%esi
     e59:	00 00                	add    %al,(%eax)
     e5b:	00 cd                	add    %cl,%ch
     e5d:	1e                   	push   %ds
     e5e:	00 00                	add    %al,(%eax)
     e60:	08 00                	or     %al,(%eax)
     e62:	00 00                	add    %al,(%eax)
     e64:	d7                   	xlat   %ds:(%ebx)
     e65:	1e                   	push   %ds
     e66:	00 00                	add    %al,(%eax)
     e68:	08 00                	or     %al,(%eax)
     e6a:	00 00                	add    %al,(%eax)
     e6c:	3f                   	aas    
     e6d:	20 00                	and    %al,(%eax)
     e6f:	00 08                	add    %cl,(%eax)
     e71:	00 00                	add    %al,(%eax)
     e73:	00 a3 20 00 00 08    	add    %ah,0x8000020(%ebx)
     e79:	00 00                	add    %al,(%eax)
     e7b:	00 e6                	add    %ah,%dh
     e7d:	20 00                	and    %al,(%eax)
     e7f:	00 08                	add    %cl,(%eax)
     e81:	00 00                	add    %al,(%eax)
     e83:	00 ee                	add    %ch,%dh
     e85:	20 00                	and    %al,(%eax)
     e87:	00 08                	add    %cl,(%eax)
     e89:	00 00                	add    %al,(%eax)
     e8b:	00 11                	add    %dl,(%ecx)
     e8d:	21 00                	and    %eax,(%eax)
     e8f:	00 08                	add    %cl,(%eax)
     e91:	00 00                	add    %al,(%eax)
     e93:	00 19                	add    %bl,(%ecx)
     e95:	21 00                	and    %eax,(%eax)
     e97:	00 08                	add    %cl,(%eax)
     e99:	00 00                	add    %al,(%eax)
     e9b:	00 28                	add    %ch,(%eax)
     e9d:	21 00                	and    %eax,(%eax)
     e9f:	00 08                	add    %cl,(%eax)
     ea1:	00 00                	add    %al,(%eax)
     ea3:	00 4d 21             	add    %cl,0x21(%ebp)
     ea6:	00 00                	add    %al,(%eax)
     ea8:	08 00                	or     %al,(%eax)
     eaa:	00 00                	add    %al,(%eax)
     eac:	63 21                	arpl   %sp,(%ecx)
     eae:	00 00                	add    %al,(%eax)
     eb0:	08 00                	or     %al,(%eax)
     eb2:	00 00                	add    %al,(%eax)
     eb4:	67 21 00             	and    %eax,(%bx,%si)
     eb7:	00 08                	add    %cl,(%eax)
     eb9:	00 00                	add    %al,(%eax)
     ebb:	00 6e 21             	add    %ch,0x21(%esi)
     ebe:	00 00                	add    %al,(%eax)
     ec0:	08 00                	or     %al,(%eax)
     ec2:	00 00                	add    %al,(%eax)
     ec4:	7b 21                	jnp    ee7 <_init-0x53d>
     ec6:	00 00                	add    %al,(%eax)
     ec8:	08 00                	or     %al,(%eax)
     eca:	00 00                	add    %al,(%eax)
     ecc:	9c                   	pushf  
     ecd:	21 00                	and    %eax,(%eax)
     ecf:	00 08                	add    %cl,(%eax)
     ed1:	00 00                	add    %al,(%eax)
     ed3:	00 a0 21 00 00 08    	add    %ah,0x8000021(%eax)
     ed9:	00 00                	add    %al,(%eax)
     edb:	00 a7 21 00 00 08    	add    %ah,0x8000021(%edi)
     ee1:	00 00                	add    %al,(%eax)
     ee3:	00 b4 21 00 00 08 00 	add    %dh,0x80000(%ecx,%eiz,1)
     eea:	00 00                	add    %al,(%eax)
     eec:	d5 21                	aad    $0x21
     eee:	00 00                	add    %al,(%eax)
     ef0:	08 00                	or     %al,(%eax)
     ef2:	00 00                	add    %al,(%eax)
     ef4:	d9 21                	fldenv (%ecx)
     ef6:	00 00                	add    %al,(%eax)
     ef8:	08 00                	or     %al,(%eax)
     efa:	00 00                	add    %al,(%eax)
     efc:	e0 21                	loopne f1f <_init-0x505>
     efe:	00 00                	add    %al,(%eax)
     f00:	08 00                	or     %al,(%eax)
     f02:	00 00                	add    %al,(%eax)
     f04:	ed                   	in     (%dx),%eax
     f05:	21 00                	and    %eax,(%eax)
     f07:	00 08                	add    %cl,(%eax)
     f09:	00 00                	add    %al,(%eax)
     f0b:	00 0d 22 00 00 08    	add    %cl,0x8000022
     f11:	00 00                	add    %al,(%eax)
     f13:	00 1a                	add    %bl,(%edx)
     f15:	22 00                	and    (%eax),%al
     f17:	00 08                	add    %cl,(%eax)
     f19:	00 00                	add    %al,(%eax)
     f1b:	00 1f                	add    %bl,(%edi)
     f1d:	22 00                	and    (%eax),%al
     f1f:	00 08                	add    %cl,(%eax)
     f21:	00 00                	add    %al,(%eax)
     f23:	00 29                	add    %ch,(%ecx)
     f25:	22 00                	and    (%eax),%al
     f27:	00 08                	add    %cl,(%eax)
     f29:	00 00                	add    %al,(%eax)
     f2b:	00 2e                	add    %ch,(%esi)
     f2d:	22 00                	and    (%eax),%al
     f2f:	00 08                	add    %cl,(%eax)
     f31:	00 00                	add    %al,(%eax)
     f33:	00 36                	add    %dh,(%esi)
     f35:	22 00                	and    (%eax),%al
     f37:	00 08                	add    %cl,(%eax)
     f39:	00 00                	add    %al,(%eax)
     f3b:	00 3b                	add    %bh,(%ebx)
     f3d:	22 00                	and    (%eax),%al
     f3f:	00 08                	add    %cl,(%eax)
     f41:	00 00                	add    %al,(%eax)
     f43:	00 45 22             	add    %al,0x22(%ebp)
     f46:	00 00                	add    %al,(%eax)
     f48:	08 00                	or     %al,(%eax)
     f4a:	00 00                	add    %al,(%eax)
     f4c:	4c                   	dec    %esp
     f4d:	22 00                	and    (%eax),%al
     f4f:	00 08                	add    %cl,(%eax)
     f51:	00 00                	add    %al,(%eax)
     f53:	00 57 22             	add    %dl,0x22(%edi)
     f56:	00 00                	add    %al,(%eax)
     f58:	08 00                	or     %al,(%eax)
     f5a:	00 00                	add    %al,(%eax)
     f5c:	61                   	popa   
     f5d:	22 00                	and    (%eax),%al
     f5f:	00 08                	add    %cl,(%eax)
     f61:	00 00                	add    %al,(%eax)
     f63:	00 68 22             	add    %ch,0x22(%eax)
     f66:	00 00                	add    %al,(%eax)
     f68:	08 00                	or     %al,(%eax)
     f6a:	00 00                	add    %al,(%eax)
     f6c:	73 22                	jae    f90 <_init-0x494>
     f6e:	00 00                	add    %al,(%eax)
     f70:	08 00                	or     %al,(%eax)
     f72:	00 00                	add    %al,(%eax)
     f74:	7e 22                	jle    f98 <_init-0x48c>
     f76:	00 00                	add    %al,(%eax)
     f78:	08 00                	or     %al,(%eax)
     f7a:	00 00                	add    %al,(%eax)
     f7c:	85 22                	test   %esp,(%edx)
     f7e:	00 00                	add    %al,(%eax)
     f80:	08 00                	or     %al,(%eax)
     f82:	00 00                	add    %al,(%eax)
     f84:	8b 22                	mov    (%edx),%esp
     f86:	00 00                	add    %al,(%eax)
     f88:	08 00                	or     %al,(%eax)
     f8a:	00 00                	add    %al,(%eax)
     f8c:	95                   	xchg   %eax,%ebp
     f8d:	22 00                	and    (%eax),%al
     f8f:	00 08                	add    %cl,(%eax)
     f91:	00 00                	add    %al,(%eax)
     f93:	00 9d 22 00 00 08    	add    %bl,0x8000022(%ebp)
     f99:	00 00                	add    %al,(%eax)
     f9b:	00 a2 22 00 00 08    	add    %ah,0x8000022(%edx)
     fa1:	00 00                	add    %al,(%eax)
     fa3:	00 e0                	add    %ah,%al
     fa5:	4b                   	dec    %ebx
     fa6:	00 00                	add    %al,(%eax)
     fa8:	08 00                	or     %al,(%eax)
     faa:	00 00                	add    %al,(%eax)
     fac:	f0 4b                	lock dec %ebx
     fae:	00 00                	add    %al,(%eax)
     fb0:	08 00                	or     %al,(%eax)
     fb2:	00 00                	add    %al,(%eax)
     fb4:	00 4c 00 00          	add    %cl,0x0(%eax,%eax,1)
     fb8:	08 00                	or     %al,(%eax)
     fba:	00 00                	add    %al,(%eax)
     fbc:	04 4c                	add    $0x4c,%al
     fbe:	00 00                	add    %al,(%eax)
     fc0:	08 00                	or     %al,(%eax)
     fc2:	00 00                	add    %al,(%eax)
     fc4:	e0 ae                	loopne f74 <_init-0x4b0>
     fc6:	01 00                	add    %eax,(%eax)
     fc8:	08 00                	or     %al,(%eax)
     fca:	00 00                	add    %al,(%eax)
     fcc:	e4 ae                	in     $0xae,%al
     fce:	01 00                	add    %eax,(%eax)
     fd0:	08 00                	or     %al,(%eax)
     fd2:	00 00                	add    %al,(%eax)
     fd4:	e8 ae 01 00 08       	call   8001187 <_end+0x7fe60d7>
     fd9:	00 00                	add    %al,(%eax)
     fdb:	00 ec                	add    %ch,%ah
     fdd:	ae                   	scas   %es:(%edi),%al
     fde:	01 00                	add    %eax,(%eax)
     fe0:	08 00                	or     %al,(%eax)
     fe2:	00 00                	add    %al,(%eax)
     fe4:	18 b0 01 00 08 00    	sbb    %dh,0x80001(%eax)
     fea:	00 00                	add    %al,(%eax)
     fec:	db 15 00 00 02 10    	fistl  0x10020000
     ff2:	00 00                	add    %al,(%eax)
     ff4:	f9                   	stc    
     ff5:	15 00 00 02 02       	adc    $0x2020000,%eax
     ffa:	00 00                	add    %al,(%eax)
     ffc:	8d 16                	lea    (%esi),%edx
     ffe:	00 00                	add    %al,(%eax)
    1000:	02 02                	add    (%edx),%al
    1002:	00 00                	add    %al,(%eax)
    1004:	79 18                	jns    101e <_init-0x406>
    1006:	00 00                	add    %al,(%eax)
    1008:	02 02                	add    (%edx),%al
    100a:	00 00                	add    %al,(%eax)
    100c:	05 16 00 00 02       	add    $0x2000016,%eax
    1011:	0c 00                	or     $0x0,%al
    1013:	00 b3 1e 00 00 02    	add    %dh,0x200001e(%ebx)
    1019:	0c 00                	or     $0x0,%al
    101b:	00 27                	add    %ah,(%edi)
    101d:	16                   	push   %ss
    101e:	00 00                	add    %al,(%eax)
    1020:	02 2f                	add    (%edi),%ch
    1022:	00 00                	add    %al,(%eax)
    1024:	44                   	inc    %esp
    1025:	16                   	push   %ss
    1026:	00 00                	add    %al,(%eax)
    1028:	02 2f                	add    (%edi),%ch
    102a:	00 00                	add    %al,(%eax)
    102c:	61                   	popa   
    102d:	16                   	push   %ss
    102e:	00 00                	add    %al,(%eax)
    1030:	02 2f                	add    (%edi),%ch
    1032:	00 00                	add    %al,(%eax)
    1034:	7e 16                	jle    104c <_init-0x3d8>
    1036:	00 00                	add    %al,(%eax)
    1038:	02 2f                	add    (%edi),%ch
    103a:	00 00                	add    %al,(%eax)
    103c:	c2 19 00             	ret    $0x19
    103f:	00 02                	add    %al,(%edx)
    1041:	2f                   	das    
    1042:	00 00                	add    %al,(%eax)
    1044:	95                   	xchg   %eax,%ebp
    1045:	16                   	push   %ss
    1046:	00 00                	add    %al,(%eax)
    1048:	01 1b                	add    %ebx,(%ebx)
    104a:	00 00                	add    %al,(%eax)
    104c:	c3                   	ret    
    104d:	16                   	push   %ss
    104e:	00 00                	add    %al,(%eax)
    1050:	01 1b                	add    %ebx,(%ebx)
    1052:	00 00                	add    %al,(%eax)
    1054:	c8 16 00 00          	enter  $0x16,$0x0
    1058:	01 1b                	add    %ebx,(%ebx)
    105a:	00 00                	add    %al,(%eax)
    105c:	ce                   	into   
    105d:	17                   	pop    %ss
    105e:	00 00                	add    %al,(%eax)
    1060:	01 1b                	add    %ebx,(%ebx)
    1062:	00 00                	add    %al,(%eax)
    1064:	d3 17                	rcll   %cl,(%edi)
    1066:	00 00                	add    %al,(%eax)
    1068:	01 1b                	add    %ebx,(%ebx)
    106a:	00 00                	add    %al,(%eax)
    106c:	56                   	push   %esi
    106d:	19 00                	sbb    %eax,(%eax)
    106f:	00 01                	add    %al,(%ecx)
    1071:	1b 00                	sbb    (%eax),%eax
    1073:	00 9d 16 00 00 01    	add    %bl,0x1000016(%ebp)
    1079:	36 00 00             	add    %al,%ss:(%eax)
    107c:	fc                   	cld    
    107d:	16                   	push   %ss
    107e:	00 00                	add    %al,(%eax)
    1080:	01 36                	add    %esi,(%esi)
    1082:	00 00                	add    %al,(%eax)
    1084:	1b 18                	sbb    (%eax),%ebx
    1086:	00 00                	add    %al,(%eax)
    1088:	01 36                	add    %esi,(%esi)
    108a:	00 00                	add    %al,(%eax)
    108c:	39 19                	cmp    %ebx,(%ecx)
    108e:	00 00                	add    %al,(%eax)
    1090:	01 36                	add    %esi,(%esi)
    1092:	00 00                	add    %al,(%eax)
    1094:	a5                   	movsl  %ds:(%esi),%es:(%edi)
    1095:	16                   	push   %ss
    1096:	00 00                	add    %al,(%eax)
    1098:	01 26                	add    %esp,(%esi)
    109a:	00 00                	add    %al,(%eax)
    109c:	35 17 00 00 01       	xor    $0x1000017,%eax
    10a1:	26 00 00             	add    %al,%es:(%eax)
    10a4:	6d                   	insl   (%dx),%es:(%edi)
    10a5:	17                   	pop    %ss
    10a6:	00 00                	add    %al,(%eax)
    10a8:	01 26                	add    %esp,(%esi)
    10aa:	00 00                	add    %al,(%eax)
    10ac:	9d                   	popf   
    10ad:	17                   	pop    %ss
    10ae:	00 00                	add    %al,(%eax)
    10b0:	01 26                	add    %esp,(%esi)
    10b2:	00 00                	add    %al,(%eax)
    10b4:	31 19                	xor    %ebx,(%ecx)
    10b6:	00 00                	add    %al,(%eax)
    10b8:	01 26                	add    %esp,(%esi)
    10ba:	00 00                	add    %al,(%eax)
    10bc:	ca 19 00             	lret   $0x19
    10bf:	00 01                	add    %al,(%ecx)
    10c1:	26 00 00             	add    %al,%es:(%eax)
    10c4:	dd 19                	fstpl  (%ecx)
    10c6:	00 00                	add    %al,(%eax)
    10c8:	01 26                	add    %esp,(%esi)
    10ca:	00 00                	add    %al,(%eax)
    10cc:	f5                   	cmc    
    10cd:	19 00                	sbb    %eax,(%eax)
    10cf:	00 01                	add    %al,(%ecx)
    10d1:	26 00 00             	add    %al,%es:(%eax)
    10d4:	39 1a                	cmp    %ebx,(%edx)
    10d6:	00 00                	add    %al,(%eax)
    10d8:	01 26                	add    %esp,(%esi)
    10da:	00 00                	add    %al,(%eax)
    10dc:	c8 1a 00 00          	enter  $0x1a,$0x0
    10e0:	01 26                	add    %esp,(%esi)
    10e2:	00 00                	add    %al,(%eax)
    10e4:	ad                   	lods   %ds:(%esi),%eax
    10e5:	16                   	push   %ss
    10e6:	00 00                	add    %al,(%eax)
    10e8:	01 35 00 00 01 17    	add    %esi,0x17010000
    10ee:	00 00                	add    %al,(%eax)
    10f0:	01 35 00 00 20 18    	add    %esi,0x18200000
    10f6:	00 00                	add    %al,(%eax)
    10f8:	01 35 00 00 1f 19    	add    %esi,0x191f0000
    10fe:	00 00                	add    %al,(%eax)
    1100:	01 35 00 00 b5 16    	add    %esi,0x16b50000
    1106:	00 00                	add    %al,(%eax)
    1108:	01 39                	add    %edi,(%ecx)
    110a:	00 00                	add    %al,(%eax)
    110c:	3a 17                	cmp    (%edi),%dl
    110e:	00 00                	add    %al,(%eax)
    1110:	01 39                	add    %edi,(%ecx)
    1112:	00 00                	add    %al,(%eax)
    1114:	1a 19                	sbb    (%ecx),%bl
    1116:	00 00                	add    %al,(%eax)
    1118:	01 39                	add    %edi,(%ecx)
    111a:	00 00                	add    %al,(%eax)
    111c:	bd 16 00 00 01       	mov    $0x1000016,%ebp
    1121:	32 00                	xor    (%eax),%al
    1123:	00 28                	add    %ch,(%eax)
    1125:	19 00                	sbb    %eax,(%eax)
    1127:	00 01                	add    %al,(%ecx)
    1129:	32 00                	xor    (%eax),%al
    112b:	00 d9                	add    %bl,%cl
    112d:	16                   	push   %ss
    112e:	00 00                	add    %al,(%eax)
    1130:	01 2b                	add    %ebp,(%ebx)
    1132:	00 00                	add    %al,(%eax)
    1134:	e2 17                	loop   114d <_init-0x2d7>
    1136:	00 00                	add    %al,(%eax)
    1138:	01 2b                	add    %ebp,(%ebx)
    113a:	00 00                	add    %al,(%eax)
    113c:	51                   	push   %ecx
    113d:	19 00                	sbb    %eax,(%eax)
    113f:	00 01                	add    %al,(%ecx)
    1141:	2b 00                	sub    (%eax),%eax
    1143:	00 d2                	add    %dl,%dl
    1145:	1a 00                	sbb    (%eax),%al
    1147:	00 01                	add    %al,(%ecx)
    1149:	2b 00                	sub    (%eax),%eax
    114b:	00 de                	add    %bl,%dh
    114d:	16                   	push   %ss
    114e:	00 00                	add    %al,(%eax)
    1150:	02 0e                	add    (%esi),%cl
    1152:	00 00                	add    %al,(%eax)
    1154:	17                   	pop    %ss
    1155:	17                   	pop    %ss
    1156:	00 00                	add    %al,(%eax)
    1158:	02 0e                	add    (%esi),%cl
    115a:	00 00                	add    %al,(%eax)
    115c:	50                   	push   %eax
    115d:	17                   	pop    %ss
    115e:	00 00                	add    %al,(%eax)
    1160:	02 0e                	add    (%esi),%cl
    1162:	00 00                	add    %al,(%eax)
    1164:	80 17 00             	adcb   $0x0,(%edi)
    1167:	00 02                	add    %al,(%edx)
    1169:	0e                   	push   %cs
    116a:	00 00                	add    %al,(%eax)
    116c:	b0 17                	mov    $0x17,%al
    116e:	00 00                	add    %al,(%eax)
    1170:	02 0e                	add    (%esi),%cl
    1172:	00 00                	add    %al,(%eax)
    1174:	12 17                	adc    (%edi),%dl
    1176:	00 00                	add    %al,(%eax)
    1178:	01 18                	add    %ebx,(%eax)
    117a:	00 00                	add    %al,(%eax)
    117c:	2f                   	das    
    117d:	18 00                	sbb    %al,(%eax)
    117f:	00 01                	add    %al,(%ecx)
    1181:	18 00                	sbb    %al,(%eax)
    1183:	00 4b 19             	add    %cl,0x19(%ebx)
    1186:	00 00                	add    %al,(%eax)
    1188:	01 18                	add    %ebx,(%eax)
    118a:	00 00                	add    %al,(%eax)
    118c:	df 1a                	fistp  (%edx)
    118e:	00 00                	add    %al,(%eax)
    1190:	01 18                	add    %ebx,(%eax)
    1192:	00 00                	add    %al,(%eax)
    1194:	4b                   	dec    %ebx
    1195:	17                   	pop    %ss
    1196:	00 00                	add    %al,(%eax)
    1198:	01 1e                	add    %ebx,(%esi)
    119a:	00 00                	add    %al,(%eax)
    119c:	42                   	inc    %edx
    119d:	19 00                	sbb    %eax,(%eax)
    119f:	00 01                	add    %al,(%ecx)
    11a1:	1e                   	push   %ds
    11a2:	00 00                	add    %al,(%eax)
    11a4:	ec                   	in     (%dx),%al
    11a5:	1a 00                	sbb    (%eax),%al
    11a7:	00 01                	add    %al,(%ecx)
    11a9:	1e                   	push   %ds
    11aa:	00 00                	add    %al,(%eax)
    11ac:	7b 17                	jnp    11c5 <_init-0x25f>
    11ae:	00 00                	add    %al,(%eax)
    11b0:	01 1f                	add    %ebx,(%edi)
    11b2:	00 00                	add    %al,(%eax)
    11b4:	14 19                	adc    $0x19,%al
    11b6:	00 00                	add    %al,(%eax)
    11b8:	01 1f                	add    %ebx,(%edi)
    11ba:	00 00                	add    %al,(%eax)
    11bc:	01 1a                	add    %ebx,(%edx)
    11be:	00 00                	add    %al,(%eax)
    11c0:	01 1f                	add    %ebx,(%edi)
    11c2:	00 00                	add    %al,(%eax)
    11c4:	f9                   	stc    
    11c5:	1a 00                	sbb    (%eax),%al
    11c7:	00 01                	add    %al,(%ecx)
    11c9:	1f                   	pop    %ds
    11ca:	00 00                	add    %al,(%eax)
    11cc:	ab                   	stos   %eax,%es:(%edi)
    11cd:	17                   	pop    %ss
    11ce:	00 00                	add    %al,(%eax)
    11d0:	01 24 00             	add    %esp,(%eax,%eax,1)
    11d3:	00 0e                	add    %cl,(%esi)
    11d5:	19 00                	sbb    %eax,(%eax)
    11d7:	00 01                	add    %al,(%ecx)
    11d9:	24 00                	and    $0x0,%al
    11db:	00 45 1a             	add    %al,0x1a(%ebp)
    11de:	00 00                	add    %al,(%eax)
    11e0:	01 24 00             	add    %esp,(%eax,%eax,1)
    11e3:	00 06                	add    %al,(%esi)
    11e5:	1b 00                	sbb    (%eax),%eax
    11e7:	00 01                	add    %al,(%ecx)
    11e9:	24 00                	and    $0x0,%al
    11eb:	00 fd                	add    %bh,%ch
    11ed:	17                   	pop    %ss
    11ee:	00 00                	add    %al,(%eax)
    11f0:	02 0f                	add    (%edi),%cl
    11f2:	00 00                	add    %al,(%eax)
    11f4:	4a                   	dec    %edx
    11f5:	18 00                	sbb    %al,(%eax)
    11f7:	00 02                	add    %al,(%edx)
    11f9:	0f 00 00             	sldt   (%eax)
    11fc:	1c 1a                	sbb    $0x1a,%al
    11fe:	00 00                	add    %al,(%eax)
    1200:	02 0f                	add    (%edi),%cl
    1202:	00 00                	add    %al,(%eax)
    1204:	60                   	pusha  
    1205:	1a 00                	sbb    (%eax),%al
    1207:	00 02                	add    %al,(%edx)
    1209:	0f 00 00             	sldt   (%eax)
    120c:	7e 18                	jle    1226 <_init-0x1fe>
    120e:	00 00                	add    %al,(%eax)
    1210:	02 0d 00 00 f0 19    	add    0x19f00000,%cl
    1216:	00 00                	add    %al,(%eax)
    1218:	02 0d 00 00 a0 18    	add    0x18a00000,%cl
    121e:	00 00                	add    %al,(%eax)
    1220:	02 30                	add    (%eax),%dh
    1222:	00 00                	add    %al,(%eax)
    1224:	c2 18 00             	ret    $0x18
    1227:	00 02                	add    %al,(%edx)
    1229:	30 00                	xor    %al,(%eax)
    122b:	00 00                	add    %al,(%eax)
    122d:	19 00                	sbb    %eax,(%eax)
    122f:	00 02                	add    %al,(%edx)
    1231:	11 00                	adc    %eax,(%eax)
    1233:	00 95 19 00 00 02    	add    %dl,0x2000019(%ebp)
    1239:	29 00                	sub    %eax,(%eax)
    123b:	00 31                	add    %dh,(%ecx)
    123d:	1d 00 00 01 29       	sbb    $0x29010000,%eax
    1242:	00 00                	add    %al,(%eax)
    1244:	38 1d 00 00 01 29    	cmp    %bl,0x29010000
    124a:	00 00                	add    %al,(%eax)
    124c:	f9                   	stc    
    124d:	1d 00 00 01 29       	sbb    $0x29010000,%eax
    1252:	00 00                	add    %al,(%eax)
    1254:	d5 19                	aad    $0x19
    1256:	00 00                	add    %al,(%eax)
    1258:	02 08                	add    (%eax),%cl
    125a:	00 00                	add    %al,(%eax)
    125c:	e8 19 00 00 02       	call   200127a <_end+0x1fe61ca>
    1261:	08 00                	or     %al,(%eax)
    1263:	00 da                	add    %bl,%dl
    1265:	1a 00                	sbb    (%eax),%al
    1267:	00 02                	add    %al,(%edx)
    1269:	06                   	push   %es
    126a:	00 00                	add    %al,(%eax)
    126c:	e7 1a                	out    %eax,$0x1a
    126e:	00 00                	add    %al,(%eax)
    1270:	02 06                	add    (%esi),%al
    1272:	00 00                	add    %al,(%eax)
    1274:	f4                   	hlt    
    1275:	1a 00                	sbb    (%eax),%al
    1277:	00 02                	add    %al,(%edx)
    1279:	06                   	push   %es
    127a:	00 00                	add    %al,(%eax)
    127c:	01 1b                	add    %ebx,(%ebx)
    127e:	00 00                	add    %al,(%eax)
    1280:	02 06                	add    (%esi),%al
    1282:	00 00                	add    %al,(%eax)
    1284:	0e                   	push   %cs
    1285:	1b 00                	sbb    (%eax),%eax
    1287:	00 02                	add    %al,(%edx)
    1289:	06                   	push   %es
    128a:	00 00                	add    %al,(%eax)
    128c:	52                   	push   %edx
    128d:	1b 00                	sbb    (%eax),%eax
    128f:	00 02                	add    %al,(%edx)
    1291:	03 00                	add    (%eax),%eax
    1293:	00 df                	add    %bl,%bh
    1295:	1e                   	push   %ds
    1296:	00 00                	add    %al,(%eax)
    1298:	02 03                	add    (%ebx),%al
    129a:	00 00                	add    %al,(%eax)
    129c:	55                   	push   %ebp
    129d:	21 00                	and    %eax,(%eax)
    129f:	00 02                	add    %al,(%edx)
    12a1:	03 00                	add    (%eax),%eax
    12a3:	00 65 1b             	add    %ah,0x1b(%ebp)
    12a6:	00 00                	add    %al,(%eax)
    12a8:	02 0a                	add    (%edx),%cl
    12aa:	00 00                	add    %al,(%eax)
    12ac:	f2 1e                	repnz push %ds
    12ae:	00 00                	add    %al,(%eax)
    12b0:	02 0a                	add    (%edx),%cl
    12b2:	00 00                	add    %al,(%eax)
    12b4:	88 1b                	mov    %bl,(%ebx)
    12b6:	00 00                	add    %al,(%eax)
    12b8:	02 12                	add    (%edx),%dl
    12ba:	00 00                	add    %al,(%eax)
    12bc:	b1 1b                	mov    $0x1b,%cl
    12be:	00 00                	add    %al,(%eax)
    12c0:	02 12                	add    (%edx),%dl
    12c2:	00 00                	add    %al,(%eax)
    12c4:	da 1b                	ficompl (%ebx)
    12c6:	00 00                	add    %al,(%eax)
    12c8:	02 12                	add    (%edx),%dl
    12ca:	00 00                	add    %al,(%eax)
    12cc:	03 1c 00             	add    (%eax,%eax,1),%ebx
    12cf:	00 02                	add    %al,(%edx)
    12d1:	12 00                	adc    (%eax),%al
    12d3:	00 2c 1c             	add    %ch,(%esp,%ebx,1)
    12d6:	00 00                	add    %al,(%eax)
    12d8:	02 12                	add    (%edx),%dl
    12da:	00 00                	add    %al,(%eax)
    12dc:	55                   	push   %ebp
    12dd:	1c 00                	sbb    $0x0,%al
    12df:	00 02                	add    %al,(%edx)
    12e1:	12 00                	adc    (%eax),%al
    12e3:	00 7e 1c             	add    %bh,0x1c(%esi)
    12e6:	00 00                	add    %al,(%eax)
    12e8:	02 12                	add    (%edx),%dl
    12ea:	00 00                	add    %al,(%eax)
    12ec:	a7                   	cmpsl  %es:(%edi),%ds:(%esi)
    12ed:	1c 00                	sbb    $0x0,%al
    12ef:	00 02                	add    %al,(%edx)
    12f1:	12 00                	adc    (%eax),%al
    12f3:	00 d0                	add    %dl,%al
    12f5:	1c 00                	sbb    $0x0,%al
    12f7:	00 02                	add    %al,(%edx)
    12f9:	12 00                	adc    (%eax),%al
    12fb:	00 f6                	add    %dh,%dh
    12fd:	1c 00                	sbb    $0x0,%al
    12ff:	00 02                	add    %al,(%edx)
    1301:	12 00                	adc    (%eax),%al
    1303:	00 1c 1d 00 00 02 12 	add    %bl,0x12020000(,%ebx,1)
    130a:	00 00                	add    %al,(%eax)
    130c:	15 1f 00 00 02       	adc    $0x200001f,%eax
    1311:	12 00                	adc    (%eax),%al
    1313:	00 3e                	add    %bh,(%esi)
    1315:	1f                   	pop    %ds
    1316:	00 00                	add    %al,(%eax)
    1318:	02 12                	add    (%edx),%dl
    131a:	00 00                	add    %al,(%eax)
    131c:	67 1f                	addr16 pop %ds
    131e:	00 00                	add    %al,(%eax)
    1320:	02 12                	add    (%edx),%dl
    1322:	00 00                	add    %al,(%eax)
    1324:	90                   	nop
    1325:	1f                   	pop    %ds
    1326:	00 00                	add    %al,(%eax)
    1328:	02 12                	add    (%edx),%dl
    132a:	00 00                	add    %al,(%eax)
    132c:	b9 1f 00 00 02       	mov    $0x200001f,%ecx
    1331:	12 00                	adc    (%eax),%al
    1333:	00 e2                	add    %ah,%dl
    1335:	1f                   	pop    %ds
    1336:	00 00                	add    %al,(%eax)
    1338:	02 12                	add    (%edx),%dl
    133a:	00 00                	add    %al,(%eax)
    133c:	08 20                	or     %ah,(%eax)
    133e:	00 00                	add    %al,(%eax)
    1340:	02 12                	add    (%edx),%dl
    1342:	00 00                	add    %al,(%eax)
    1344:	2e 20 00             	and    %al,%cs:(%eax)
    1347:	00 02                	add    %al,(%edx)
    1349:	12 00                	adc    (%eax),%al
    134b:	00 3d 1d 00 00 02    	add    %bh,0x200001d
    1351:	1c 00                	sbb    $0x0,%al
    1353:	00 96 1d 00 00 02    	add    %dl,0x200001d(%esi)
    1359:	17                   	pop    %ss
    135a:	00 00                	add    %al,(%eax)
    135c:	04 1e                	add    $0x1e,%al
    135e:	00 00                	add    %al,(%eax)
    1360:	02 13                	add    (%ebx),%dl
    1362:	00 00                	add    %al,(%eax)
    1364:	01 21                	add    %esp,(%ecx)
    1366:	00 00                	add    %al,(%eax)
    1368:	02 13                	add    (%ebx),%dl
    136a:	00 00                	add    %al,(%eax)
    136c:	24 1e                	and    $0x1e,%al
    136e:	00 00                	add    %al,(%eax)
    1370:	01 2a                	add    %ebp,(%edx)
    1372:	00 00                	add    %al,(%eax)
    1374:	89 21                	mov    %esp,(%ecx)
    1376:	00 00                	add    %al,(%eax)
    1378:	01 2a                	add    %ebp,(%edx)
    137a:	00 00                	add    %al,(%eax)
    137c:	30 1e                	xor    %bl,(%esi)
    137e:	00 00                	add    %al,(%eax)
    1380:	02 37                	add    (%edi),%dh
    1382:	00 00                	add    %al,(%eax)
    1384:	8c 1e                	mov    %ds,(%esi)
    1386:	00 00                	add    %al,(%eax)
    1388:	02 15 00 00 40 21    	add    0x21400000,%dl
    138e:	00 00                	add    %al,(%eax)
    1390:	02 15 00 00 43 20    	add    0x20430000,%dl
    1396:	00 00                	add    %al,(%eax)
    1398:	01 28                	add    %ebp,(%eax)
    139a:	00 00                	add    %al,(%eax)
    139c:	4a                   	dec    %edx
    139d:	20 00                	and    %al,(%eax)
    139f:	00 01                	add    %al,(%ecx)
    13a1:	28 00                	sub    %al,(%eax)
    13a3:	00 f6                	add    %dh,%dh
    13a5:	20 00                	and    %al,(%eax)
    13a7:	00 01                	add    %al,(%ecx)
    13a9:	28 00                	sub    %al,(%eax)
    13ab:	00 4f 20             	add    %cl,0x20(%edi)
    13ae:	00 00                	add    %al,(%eax)
    13b0:	02 38                	add    (%eax),%bh
    13b2:	00 00                	add    %al,(%eax)
    13b4:	93                   	xchg   %eax,%ebx
    13b5:	20 00                	and    %al,(%eax)
    13b7:	00 02                	add    %al,(%edx)
    13b9:	2d 00 00 21 21       	sub    $0x21210000,%eax
    13be:	00 00                	add    %al,(%eax)
    13c0:	01 31                	add    %esi,(%ecx)
    13c2:	00 00                	add    %al,(%eax)
    13c4:	c2 21 00             	ret    $0x21
    13c7:	00 01                	add    %al,(%ecx)
    13c9:	31 00                	xor    %eax,(%eax)
    13cb:	00 2d 21 00 00 02    	add    %ch,0x2000021
    13d1:	25 00 00 fb 21       	and    $0x21fb0000,%eax
    13d6:	00 00                	add    %al,(%eax)
    13d8:	01 04 00             	add    %eax,(%eax,%eax,1)
    13db:	00 5c 22 00          	add    %bl,0x0(%edx,%eiz,1)
    13df:	00 02                	add    %al,(%edx)
    13e1:	09 00                	or     %eax,(%eax)
    13e3:	00 ec                	add    %ch,%ah
    13e5:	af                   	scas   %es:(%edi),%eax
    13e6:	01 00                	add    %eax,(%eax)
    13e8:	06                   	push   %es
    13e9:	01 00                	add    %eax,(%eax)
    13eb:	00 f0                	add    %dh,%al
    13ed:	af                   	scas   %es:(%edi),%eax
    13ee:	01 00                	add    %eax,(%eax)
    13f0:	06                   	push   %es
    13f1:	05 00 00 f4 af       	add    $0xaff40000,%eax
    13f6:	01 00                	add    %eax,(%eax)
    13f8:	06                   	push   %es
    13f9:	0b 00                	or     (%eax),%eax
    13fb:	00 f8                	add    %bh,%al
    13fd:	af                   	scas   %es:(%edi),%eax
    13fe:	01 00                	add    %eax,(%eax)
    1400:	06                   	push   %es
    1401:	14 00                	adc    $0x0,%al
    1403:	00 fc                	add    %bh,%ah
    1405:	af                   	scas   %es:(%edi),%eax
    1406:	01 00                	add    %eax,(%eax)
    1408:	06                   	push   %es
    1409:	16                   	push   %ss
	...

Desmontagem da seção .rel.plt:

0000140c <.rel.plt>:
    140c:	0c b0                	or     $0xb0,%al
    140e:	01 00                	add    %eax,(%eax)
    1410:	07                   	pop    %es
    1411:	05 00 00 10 b0       	add    $0xb0100000,%eax
    1416:	01 00                	add    %eax,(%eax)
    1418:	07                   	pop    %es
    1419:	07                   	pop    %es
    141a:	00 00                	add    %al,(%eax)
    141c:	14 b0                	adc    $0xb0,%al
    141e:	01 00                	add    %eax,(%eax)
    1420:	07                   	pop    %es
    1421:	0b 00                	or     (%eax),%eax
	...

Desmontagem da seção .init:

00001424 <_init>:
    1424:	53                   	push   %ebx
    1425:	83 ec 08             	sub    $0x8,%esp
    1428:	e8 63 00 00 00       	call   1490 <__x86.get_pc_thunk.bx>
    142d:	81 c3 d3 9b 01 00    	add    $0x19bd3,%ebx
    1433:	8b 83 f4 ff ff ff    	mov    -0xc(%ebx),%eax
    1439:	85 c0                	test   %eax,%eax
    143b:	74 05                	je     1442 <_init+0x1e>
    143d:	e8 3e 00 00 00       	call   1480 <__gmon_start__@plt>
    1442:	83 c4 08             	add    $0x8,%esp
    1445:	5b                   	pop    %ebx
    1446:	c3                   	ret    

Desmontagem da seção .plt:

00001450 <__cxa_finalize@plt-0x10>:
    1450:	ff b3 04 00 00 00    	pushl  0x4(%ebx)
    1456:	ff a3 08 00 00 00    	jmp    *0x8(%ebx)
    145c:	00 00                	add    %al,(%eax)
	...

00001460 <__cxa_finalize@plt>:
    1460:	ff a3 0c 00 00 00    	jmp    *0xc(%ebx)
    1466:	68 00 00 00 00       	push   $0x0
    146b:	e9 e0 ff ff ff       	jmp    1450 <_init+0x2c>

00001470 <__cxa_atexit@plt>:
    1470:	ff a3 10 00 00 00    	jmp    *0x10(%ebx)
    1476:	68 08 00 00 00       	push   $0x8
    147b:	e9 d0 ff ff ff       	jmp    1450 <_init+0x2c>

00001480 <__gmon_start__@plt>:
    1480:	ff a3 14 00 00 00    	jmp    *0x14(%ebx)
    1486:	68 10 00 00 00       	push   $0x10
    148b:	e9 c0 ff ff ff       	jmp    1450 <_init+0x2c>

Desmontagem da seção .text:

00001490 <__x86.get_pc_thunk.bx>:
    1490:	8b 1c 24             	mov    (%esp),%ebx
    1493:	c3                   	ret    
    1494:	66 90                	xchg   %ax,%ax
    1496:	66 90                	xchg   %ax,%ax
    1498:	66 90                	xchg   %ax,%ax
    149a:	66 90                	xchg   %ax,%ax
    149c:	66 90                	xchg   %ax,%ax
    149e:	66 90                	xchg   %ax,%ax

000014a0 <deregister_tm_clones>:
    14a0:	55                   	push   %ebp
    14a1:	89 e5                	mov    %esp,%ebp
    14a3:	53                   	push   %ebx
    14a4:	e8 e7 ff ff ff       	call   1490 <__x86.get_pc_thunk.bx>
    14a9:	81 c3 57 9b 01 00    	add    $0x19b57,%ebx
    14af:	83 ec 14             	sub    $0x14,%esp
    14b2:	8d 83 1f 00 00 00    	lea    0x1f(%ebx),%eax
    14b8:	8d 93 1c 00 00 00    	lea    0x1c(%ebx),%edx
    14be:	29 d0                	sub    %edx,%eax
    14c0:	83 f8 06             	cmp    $0x6,%eax
    14c3:	77 06                	ja     14cb <deregister_tm_clones+0x2b>
    14c5:	83 c4 14             	add    $0x14,%esp
    14c8:	5b                   	pop    %ebx
    14c9:	5d                   	pop    %ebp
    14ca:	c3                   	ret    
    14cb:	8b 83 ec ff ff ff    	mov    -0x14(%ebx),%eax
    14d1:	85 c0                	test   %eax,%eax
    14d3:	74 f0                	je     14c5 <deregister_tm_clones+0x25>
    14d5:	89 14 24             	mov    %edx,(%esp)
    14d8:	ff d0                	call   *%eax
    14da:	eb e9                	jmp    14c5 <deregister_tm_clones+0x25>
    14dc:	8d 74 26 00          	lea    0x0(%esi,%eiz,1),%esi

000014e0 <register_tm_clones>:
    14e0:	55                   	push   %ebp
    14e1:	89 e5                	mov    %esp,%ebp
    14e3:	53                   	push   %ebx
    14e4:	e8 a7 ff ff ff       	call   1490 <__x86.get_pc_thunk.bx>
    14e9:	81 c3 17 9b 01 00    	add    $0x19b17,%ebx
    14ef:	83 ec 14             	sub    $0x14,%esp
    14f2:	8d 83 1c 00 00 00    	lea    0x1c(%ebx),%eax
    14f8:	8d 93 1c 00 00 00    	lea    0x1c(%ebx),%edx
    14fe:	29 d0                	sub    %edx,%eax
    1500:	c1 f8 02             	sar    $0x2,%eax
    1503:	89 c1                	mov    %eax,%ecx
    1505:	c1 e9 1f             	shr    $0x1f,%ecx
    1508:	01 c8                	add    %ecx,%eax
    150a:	d1 f8                	sar    %eax
    150c:	75 06                	jne    1514 <register_tm_clones+0x34>
    150e:	83 c4 14             	add    $0x14,%esp
    1511:	5b                   	pop    %ebx
    1512:	5d                   	pop    %ebp
    1513:	c3                   	ret    
    1514:	8b 8b fc ff ff ff    	mov    -0x4(%ebx),%ecx
    151a:	85 c9                	test   %ecx,%ecx
    151c:	74 f0                	je     150e <register_tm_clones+0x2e>
    151e:	89 44 24 04          	mov    %eax,0x4(%esp)
    1522:	89 14 24             	mov    %edx,(%esp)
    1525:	ff d1                	call   *%ecx
    1527:	eb e5                	jmp    150e <register_tm_clones+0x2e>
    1529:	8d b4 26 00 00 00 00 	lea    0x0(%esi,%eiz,1),%esi

00001530 <__do_global_dtors_aux>:
    1530:	55                   	push   %ebp
    1531:	89 e5                	mov    %esp,%ebp
    1533:	53                   	push   %ebx
    1534:	e8 57 ff ff ff       	call   1490 <__x86.get_pc_thunk.bx>
    1539:	81 c3 c7 9a 01 00    	add    $0x19ac7,%ebx
    153f:	83 ec 14             	sub    $0x14,%esp
    1542:	80 bb 1c 00 00 00 00 	cmpb   $0x0,0x1c(%ebx)
    1549:	75 24                	jne    156f <__do_global_dtors_aux+0x3f>
    154b:	8b 83 f0 ff ff ff    	mov    -0x10(%ebx),%eax
    1551:	85 c0                	test   %eax,%eax
    1553:	74 0e                	je     1563 <__do_global_dtors_aux+0x33>
    1555:	8b 83 18 00 00 00    	mov    0x18(%ebx),%eax
    155b:	89 04 24             	mov    %eax,(%esp)
    155e:	e8 fd fe ff ff       	call   1460 <__cxa_finalize@plt>
    1563:	e8 38 ff ff ff       	call   14a0 <deregister_tm_clones>
    1568:	c6 83 1c 00 00 00 01 	movb   $0x1,0x1c(%ebx)
    156f:	83 c4 14             	add    $0x14,%esp
    1572:	5b                   	pop    %ebx
    1573:	5d                   	pop    %ebp
    1574:	c3                   	ret    
    1575:	8d 74 26 00          	lea    0x0(%esi,%eiz,1),%esi
    1579:	8d bc 27 00 00 00 00 	lea    0x0(%edi,%eiz,1),%edi

00001580 <frame_dummy>:
    1580:	55                   	push   %ebp
    1581:	89 e5                	mov    %esp,%ebp
    1583:	53                   	push   %ebx
    1584:	e8 07 ff ff ff       	call   1490 <__x86.get_pc_thunk.bx>
    1589:	81 c3 77 9a 01 00    	add    $0x19a77,%ebx
    158f:	83 ec 14             	sub    $0x14,%esp
    1592:	8b 83 f0 fe ff ff    	mov    -0x110(%ebx),%eax
    1598:	85 c0                	test   %eax,%eax
    159a:	74 15                	je     15b1 <frame_dummy+0x31>
    159c:	8b 83 f8 ff ff ff    	mov    -0x8(%ebx),%eax
    15a2:	85 c0                	test   %eax,%eax
    15a4:	74 0b                	je     15b1 <frame_dummy+0x31>
    15a6:	8d 93 f0 fe ff ff    	lea    -0x110(%ebx),%edx
    15ac:	89 14 24             	mov    %edx,(%esp)
    15af:	ff d0                	call   *%eax
    15b1:	83 c4 14             	add    $0x14,%esp
    15b4:	5b                   	pop    %ebx
    15b5:	5d                   	pop    %ebp
    15b6:	e9 25 ff ff ff       	jmp    14e0 <register_tm_clones>

000015bb <_ZL37__nv_save_fatbinhandle_for_managed_rtPPv>:
    15bb:	55                   	push   %ebp
    15bc:	89 e5                	mov    %esp,%ebp
    15be:	8b 45 08             	mov    0x8(%ebp),%eax
    15c1:	a3 50 b0 01 00       	mov    %eax,0x1b050
			15c2: R_386_RELATIVE	*ABS*
    15c6:	5d                   	pop    %ebp
    15c7:	c3                   	ret    

000015c8 <_ZL11HandleError9cudaErrorPKci>:
    15c8:	55                   	push   %ebp
    15c9:	89 e5                	mov    %esp,%ebp
    15cb:	83 ec 18             	sub    $0x18,%esp
    15ce:	83 7d 08 00          	cmpl   $0x0,0x8(%ebp)
    15d2:	74 35                	je     1609 <_ZL11HandleError9cudaErrorPKci+0x41>
    15d4:	8b 45 08             	mov    0x8(%ebp),%eax
    15d7:	89 04 24             	mov    %eax,(%esp)
    15da:	e8 fc ff ff ff       	call   15db <_ZL11HandleError9cudaErrorPKci+0x13>
			15db: R_386_PC32	cudaGetErrorString
    15df:	8b 55 10             	mov    0x10(%ebp),%edx
    15e2:	89 54 24 0c          	mov    %edx,0xc(%esp)
    15e6:	8b 55 0c             	mov    0xc(%ebp),%edx
    15e9:	89 54 24 08          	mov    %edx,0x8(%esp)
    15ed:	89 44 24 04          	mov    %eax,0x4(%esp)
    15f1:	c7 04 24 00 23 00 00 	movl   $0x2300,(%esp)
			15f4: R_386_RELATIVE	*ABS*
    15f8:	e8 fc ff ff ff       	call   15f9 <_ZL11HandleError9cudaErrorPKci+0x31>
			15f9: R_386_PC32	printf
    15fd:	c7 04 24 01 00 00 00 	movl   $0x1,(%esp)
    1604:	e8 fc ff ff ff       	call   1605 <_ZL11HandleError9cudaErrorPKci+0x3d>
			1605: R_386_PC32	exit
    1609:	c9                   	leave  
    160a:	c3                   	ret    

0000160b <Java_DFS_1Solving_00024DFS_1intermediario_setData_1c>:
    160b:	55                   	push   %ebp
    160c:	89 e5                	mov    %esp,%ebp
    160e:	83 ec 28             	sub    $0x28,%esp
    1611:	c7 44 24 08 00 00 00 	movl   $0x0,0x8(%esp)
    1618:	00 
    1619:	8b 45 14             	mov    0x14(%ebp),%eax
    161c:	89 44 24 04          	mov    %eax,0x4(%esp)
    1620:	8b 45 08             	mov    0x8(%ebp),%eax
    1623:	89 04 24             	mov    %eax,(%esp)
    1626:	e8 fc ff ff ff       	call   1627 <Java_DFS_1Solving_00024DFS_1intermediario_setData_1c+0x1c>
			1627: R_386_PC32	_ZN7JNIEnv_19GetIntArrayElementsEP10_jintArrayPh
    162b:	89 45 e8             	mov    %eax,-0x18(%ebp)
    162e:	c7 44 24 08 00 00 00 	movl   $0x0,0x8(%esp)
    1635:	00 
    1636:	8b 45 20             	mov    0x20(%ebp),%eax
    1639:	89 44 24 04          	mov    %eax,0x4(%esp)
    163d:	8b 45 08             	mov    0x8(%ebp),%eax
    1640:	89 04 24             	mov    %eax,(%esp)
    1643:	e8 fc ff ff ff       	call   1644 <Java_DFS_1Solving_00024DFS_1intermediario_setData_1c+0x39>
			1644: R_386_PC32	_ZN7JNIEnv_19GetIntArrayElementsEP10_jintArrayPh
    1648:	89 45 ec             	mov    %eax,-0x14(%ebp)
    164b:	c7 44 24 08 00 00 00 	movl   $0x0,0x8(%esp)
    1652:	00 
    1653:	8b 45 30             	mov    0x30(%ebp),%eax
    1656:	89 44 24 04          	mov    %eax,0x4(%esp)
    165a:	8b 45 08             	mov    0x8(%ebp),%eax
    165d:	89 04 24             	mov    %eax,(%esp)
    1660:	e8 fc ff ff ff       	call   1661 <Java_DFS_1Solving_00024DFS_1intermediario_setData_1c+0x56>
			1661: R_386_PC32	_ZN7JNIEnv_19GetIntArrayElementsEP10_jintArrayPh
    1665:	89 45 f0             	mov    %eax,-0x10(%ebp)
    1668:	c7 44 24 08 00 00 00 	movl   $0x0,0x8(%esp)
    166f:	00 
    1670:	8b 45 34             	mov    0x34(%ebp),%eax
    1673:	89 44 24 04          	mov    %eax,0x4(%esp)
    1677:	8b 45 08             	mov    0x8(%ebp),%eax
    167a:	89 04 24             	mov    %eax,(%esp)
    167d:	e8 fc ff ff ff       	call   167e <Java_DFS_1Solving_00024DFS_1intermediario_setData_1c+0x73>
			167e: R_386_PC32	_ZN7JNIEnv_19GetIntArrayElementsEP10_jintArrayPh
    1682:	89 45 f4             	mov    %eax,-0xc(%ebp)
    1685:	c7 04 24 15 23 00 00 	movl   $0x2315,(%esp)
			1688: R_386_RELATIVE	*ABS*
    168c:	e8 fc ff ff ff       	call   168d <Java_DFS_1Solving_00024DFS_1intermediario_setData_1c+0x82>
			168d: R_386_PC32	printf
    1691:	8b 45 10             	mov    0x10(%ebp),%eax
    1694:	a3 00 00 00 00       	mov    %eax,0x0
			1695: R_386_32	N
    1699:	8b 45 24             	mov    0x24(%ebp),%eax
    169c:	a3 00 00 00 00       	mov    %eax,0x0
			169d: R_386_32	nPreFixos
    16a1:	8b 45 28             	mov    0x28(%ebp),%eax
    16a4:	a3 00 00 00 00       	mov    %eax,0x0
			16a5: R_386_32	qtd_prefixos_segundo_dfs
    16a9:	8b 45 18             	mov    0x18(%ebp),%eax
    16ac:	a3 00 00 00 00       	mov    %eax,0x0
			16ad: R_386_32	nivelPreFixos
    16b1:	8b 45 1c             	mov    0x1c(%ebp),%eax
    16b4:	a3 00 00 00 00       	mov    %eax,0x0
			16b5: R_386_32	nivelDesejado
    16b9:	8b 45 2c             	mov    0x2c(%ebp),%eax
    16bc:	a3 00 00 00 00       	mov    %eax,0x0
			16bd: R_386_32	qtd_prefixos_locais
    16c1:	8b 15 00 00 00 00    	mov    0x0,%edx
			16c3: R_386_32	N
    16c7:	a1 00 00 00 00       	mov    0x0,%eax
			16c8: R_386_32	N
    16cc:	0f af c2             	imul   %edx,%eax
    16cf:	c1 e0 02             	shl    $0x2,%eax
    16d2:	89 44 24 04          	mov    %eax,0x4(%esp)
    16d6:	c7 04 24 00 00 00 00 	movl   $0x0,(%esp)
			16d9: R_386_32	mat_d
    16dd:	e8 fc ff ff ff       	call   16de <Java_DFS_1Solving_00024DFS_1intermediario_setData_1c+0xd3>
			16de: R_386_PC32	cudaMalloc
    16e2:	c7 44 24 08 99 00 00 	movl   $0x99,0x8(%esp)
    16e9:	00 
    16ea:	c7 44 24 04 23 23 00 	movl   $0x2323,0x4(%esp)
    16f1:	00 
			16ee: R_386_RELATIVE	*ABS*
    16f2:	89 04 24             	mov    %eax,(%esp)
    16f5:	e8 ce fe ff ff       	call   15c8 <_ZL11HandleError9cudaErrorPKci>
    16fa:	8b 15 00 00 00 00    	mov    0x0,%edx
			16fc: R_386_32	nPreFixos
    1700:	a1 00 00 00 00       	mov    0x0,%eax
			1701: R_386_32	nivelPreFixos
    1705:	0f af c2             	imul   %edx,%eax
    1708:	c1 e0 02             	shl    $0x2,%eax
    170b:	89 44 24 04          	mov    %eax,0x4(%esp)
    170f:	c7 04 24 00 00 00 00 	movl   $0x0,(%esp)
			1712: R_386_32	path_d
    1716:	e8 fc ff ff ff       	call   1717 <Java_DFS_1Solving_00024DFS_1intermediario_setData_1c+0x10c>
			1717: R_386_PC32	cudaMalloc
    171b:	c7 44 24 08 9a 00 00 	movl   $0x9a,0x8(%esp)
    1722:	00 
    1723:	c7 44 24 04 23 23 00 	movl   $0x2323,0x4(%esp)
    172a:	00 
			1727: R_386_RELATIVE	*ABS*
    172b:	89 04 24             	mov    %eax,(%esp)
    172e:	e8 95 fe ff ff       	call   15c8 <_ZL11HandleError9cudaErrorPKci>
    1733:	8b 15 00 00 00 00    	mov    0x0,%edx
			1735: R_386_32	qtd_prefixos_segundo_dfs
    1739:	a1 00 00 00 00       	mov    0x0,%eax
			173a: R_386_32	nivelDesejado
    173e:	0f af c2             	imul   %edx,%eax
    1741:	c1 e0 02             	shl    $0x2,%eax
    1744:	89 44 24 04          	mov    %eax,0x4(%esp)
    1748:	c7 04 24 00 00 00 00 	movl   $0x0,(%esp)
			174b: R_386_32	path_second_dfs_d
    174f:	e8 fc ff ff ff       	call   1750 <Java_DFS_1Solving_00024DFS_1intermediario_setData_1c+0x145>
			1750: R_386_PC32	cudaMalloc
    1754:	c7 44 24 08 9b 00 00 	movl   $0x9b,0x8(%esp)
    175b:	00 
    175c:	c7 44 24 04 23 23 00 	movl   $0x2323,0x4(%esp)
    1763:	00 
			1760: R_386_RELATIVE	*ABS*
    1764:	89 04 24             	mov    %eax,(%esp)
    1767:	e8 5c fe ff ff       	call   15c8 <_ZL11HandleError9cudaErrorPKci>
    176c:	a1 00 00 00 00       	mov    0x0,%eax
			176d: R_386_32	qtd_prefixos_segundo_dfs
    1771:	c1 e0 02             	shl    $0x2,%eax
    1774:	89 44 24 04          	mov    %eax,0x4(%esp)
    1778:	c7 04 24 00 00 00 00 	movl   $0x0,(%esp)
			177b: R_386_32	qtd_sols_d
    177f:	e8 fc ff ff ff       	call   1780 <Java_DFS_1Solving_00024DFS_1intermediario_setData_1c+0x175>
			1780: R_386_PC32	cudaMalloc
    1784:	c7 44 24 08 9d 00 00 	movl   $0x9d,0x8(%esp)
    178b:	00 
    178c:	c7 44 24 04 23 23 00 	movl   $0x2323,0x4(%esp)
    1793:	00 
			1790: R_386_RELATIVE	*ABS*
    1794:	89 04 24             	mov    %eax,(%esp)
    1797:	e8 2c fe ff ff       	call   15c8 <_ZL11HandleError9cudaErrorPKci>
    179c:	a1 00 00 00 00       	mov    0x0,%eax
			179d: R_386_32	qtd_prefixos_segundo_dfs
    17a1:	c1 e0 02             	shl    $0x2,%eax
    17a4:	89 44 24 04          	mov    %eax,0x4(%esp)
    17a8:	c7 04 24 00 00 00 00 	movl   $0x0,(%esp)
			17ab: R_386_32	melhor_sol_d
    17af:	e8 fc ff ff ff       	call   17b0 <Java_DFS_1Solving_00024DFS_1intermediario_setData_1c+0x1a5>
			17b0: R_386_PC32	cudaMalloc
    17b4:	c7 44 24 08 9e 00 00 	movl   $0x9e,0x8(%esp)
    17bb:	00 
    17bc:	c7 44 24 04 23 23 00 	movl   $0x2323,0x4(%esp)
    17c3:	00 
			17c0: R_386_RELATIVE	*ABS*
    17c4:	89 04 24             	mov    %eax,(%esp)
    17c7:	e8 fc fd ff ff       	call   15c8 <_ZL11HandleError9cudaErrorPKci>
    17cc:	8b 15 00 00 00 00    	mov    0x0,%edx
			17ce: R_386_32	N
    17d2:	a1 00 00 00 00       	mov    0x0,%eax
			17d3: R_386_32	N
    17d7:	0f af c2             	imul   %edx,%eax
    17da:	8d 14 85 00 00 00 00 	lea    0x0(,%eax,4),%edx
    17e1:	a1 00 00 00 00       	mov    0x0,%eax
			17e2: R_386_32	mat_d
    17e6:	c7 44 24 0c 01 00 00 	movl   $0x1,0xc(%esp)
    17ed:	00 
    17ee:	89 54 24 08          	mov    %edx,0x8(%esp)
    17f2:	8b 55 e8             	mov    -0x18(%ebp),%edx
    17f5:	89 54 24 04          	mov    %edx,0x4(%esp)
    17f9:	89 04 24             	mov    %eax,(%esp)
    17fc:	e8 fc ff ff ff       	call   17fd <Java_DFS_1Solving_00024DFS_1intermediario_setData_1c+0x1f2>
			17fd: R_386_PC32	cudaMemcpy
    1801:	c7 44 24 08 a0 00 00 	movl   $0xa0,0x8(%esp)
    1808:	00 
    1809:	c7 44 24 04 23 23 00 	movl   $0x2323,0x4(%esp)
    1810:	00 
			180d: R_386_RELATIVE	*ABS*
    1811:	89 04 24             	mov    %eax,(%esp)
    1814:	e8 af fd ff ff       	call   15c8 <_ZL11HandleError9cudaErrorPKci>
    1819:	8b 15 00 00 00 00    	mov    0x0,%edx
			181b: R_386_32	nPreFixos
    181f:	a1 00 00 00 00       	mov    0x0,%eax
			1820: R_386_32	nivelPreFixos
    1824:	0f af c2             	imul   %edx,%eax
    1827:	8d 14 85 00 00 00 00 	lea    0x0(,%eax,4),%edx
    182e:	a1 00 00 00 00       	mov    0x0,%eax
			182f: R_386_32	path_d
    1833:	c7 44 24 0c 01 00 00 	movl   $0x1,0xc(%esp)
    183a:	00 
    183b:	89 54 24 08          	mov    %edx,0x8(%esp)
    183f:	8b 55 ec             	mov    -0x14(%ebp),%edx
    1842:	89 54 24 04          	mov    %edx,0x4(%esp)
    1846:	89 04 24             	mov    %eax,(%esp)
    1849:	e8 fc ff ff ff       	call   184a <Java_DFS_1Solving_00024DFS_1intermediario_setData_1c+0x23f>
			184a: R_386_PC32	cudaMemcpy
    184e:	c7 44 24 08 a1 00 00 	movl   $0xa1,0x8(%esp)
    1855:	00 
    1856:	c7 44 24 04 23 23 00 	movl   $0x2323,0x4(%esp)
    185d:	00 
			185a: R_386_RELATIVE	*ABS*
    185e:	89 04 24             	mov    %eax,(%esp)
    1861:	e8 62 fd ff ff       	call   15c8 <_ZL11HandleError9cudaErrorPKci>
    1866:	c9                   	leave  
    1867:	c3                   	ret    

00001868 <Java_DFS_1Solving_00024DFS_1intermediario_k_1dfs_1intermediario>:
    1868:	55                   	push   %ebp
    1869:	89 e5                	mov    %esp,%ebp
    186b:	57                   	push   %edi
    186c:	56                   	push   %esi
    186d:	53                   	push   %ebx
    186e:	83 ec 6c             	sub    $0x6c,%esp
    1871:	c7 04 24 2d 23 00 00 	movl   $0x232d,(%esp)
			1874: R_386_RELATIVE	*ABS*
    1878:	e8 fc ff ff ff       	call   1879 <Java_DFS_1Solving_00024DFS_1intermediario_k_1dfs_1intermediario+0x11>
			1879: R_386_PC32	printf
    187d:	e8 fc ff ff ff       	call   187e <Java_DFS_1Solving_00024DFS_1intermediario_k_1dfs_1intermediario+0x16>
			187e: R_386_PC32	cudaDeviceSynchronize
    1882:	8b 45 14             	mov    0x14(%ebp),%eax
    1885:	c7 44 24 0c 01 00 00 	movl   $0x1,0xc(%esp)
    188c:	00 
    188d:	c7 44 24 08 01 00 00 	movl   $0x1,0x8(%esp)
    1894:	00 
    1895:	89 44 24 04          	mov    %eax,0x4(%esp)
    1899:	8d 45 dc             	lea    -0x24(%ebp),%eax
    189c:	89 04 24             	mov    %eax,(%esp)
    189f:	e8 fc ff ff ff       	call   18a0 <Java_DFS_1Solving_00024DFS_1intermediario_k_1dfs_1intermediario+0x38>
			18a0: R_386_PC32	_ZN4dim3C1Ejjj
    18a4:	8b 45 10             	mov    0x10(%ebp),%eax
    18a7:	c7 44 24 0c 01 00 00 	movl   $0x1,0xc(%esp)
    18ae:	00 
    18af:	c7 44 24 08 01 00 00 	movl   $0x1,0x8(%esp)
    18b6:	00 
    18b7:	89 44 24 04          	mov    %eax,0x4(%esp)
    18bb:	8d 45 d0             	lea    -0x30(%ebp),%eax
    18be:	89 04 24             	mov    %eax,(%esp)
    18c1:	e8 fc ff ff ff       	call   18c2 <Java_DFS_1Solving_00024DFS_1intermediario_k_1dfs_1intermediario+0x5a>
			18c2: R_386_PC32	_ZN4dim3C1Ejjj
    18c6:	c7 44 24 1c 00 00 00 	movl   $0x0,0x1c(%esp)
    18cd:	00 
    18ce:	c7 44 24 18 00 00 00 	movl   $0x0,0x18(%esp)
    18d5:	00 
    18d6:	8b 45 dc             	mov    -0x24(%ebp),%eax
    18d9:	89 44 24 0c          	mov    %eax,0xc(%esp)
    18dd:	8b 45 e0             	mov    -0x20(%ebp),%eax
    18e0:	89 44 24 10          	mov    %eax,0x10(%esp)
    18e4:	8b 45 e4             	mov    -0x1c(%ebp),%eax
    18e7:	89 44 24 14          	mov    %eax,0x14(%esp)
    18eb:	8b 45 d0             	mov    -0x30(%ebp),%eax
    18ee:	89 04 24             	mov    %eax,(%esp)
    18f1:	8b 45 d4             	mov    -0x2c(%ebp),%eax
    18f4:	89 44 24 04          	mov    %eax,0x4(%esp)
    18f8:	8b 45 d8             	mov    -0x28(%ebp),%eax
    18fb:	89 44 24 08          	mov    %eax,0x8(%esp)
    18ff:	e8 fc ff ff ff       	call   1900 <Java_DFS_1Solving_00024DFS_1intermediario_k_1dfs_1intermediario+0x98>
			1900: R_386_PC32	cudaConfigureCall
    1904:	85 c0                	test   %eax,%eax
    1906:	0f 85 8d 00 00 00    	jne    1999 <Java_DFS_1Solving_00024DFS_1intermediario_k_1dfs_1intermediario+0x131>
    190c:	8b 15 00 00 00 00    	mov    0x0,%edx
			190e: R_386_32	melhor_sol_d
    1912:	8b 1d 00 00 00 00    	mov    0x0,%ebx
			1914: R_386_32	qtd_sols_d
    1918:	8b 3d 00 00 00 00    	mov    0x0,%edi
			191a: R_386_32	nivelDesejado
    191e:	a1 00 00 00 00       	mov    0x0,%eax
			191f: R_386_32	nivelPreFixos
    1923:	89 45 c4             	mov    %eax,-0x3c(%ebp)
    1926:	8b 0d 00 00 00 00    	mov    0x0,%ecx
			1928: R_386_32	qtd_prefixos_locais
    192c:	89 4d c0             	mov    %ecx,-0x40(%ebp)
    192f:	8b 35 00 00 00 00    	mov    0x0,%esi
			1931: R_386_32	qtd_prefixos_segundo_dfs
    1935:	89 75 bc             	mov    %esi,-0x44(%ebp)
    1938:	a1 00 00 00 00       	mov    0x0,%eax
			1939: R_386_32	nPreFixos
    193d:	89 45 b8             	mov    %eax,-0x48(%ebp)
    1940:	8b 0d 00 00 00 00    	mov    0x0,%ecx
			1942: R_386_32	path_second_dfs_d
    1946:	89 4d b4             	mov    %ecx,-0x4c(%ebp)
    1949:	8b 35 00 00 00 00    	mov    0x0,%esi
			194b: R_386_32	path_d
    194f:	8b 0d 00 00 00 00    	mov    0x0,%ecx
			1951: R_386_32	mat_d
    1955:	a1 00 00 00 00       	mov    0x0,%eax
			1956: R_386_32	N
    195a:	89 54 24 28          	mov    %edx,0x28(%esp)
    195e:	89 5c 24 24          	mov    %ebx,0x24(%esp)
    1962:	89 7c 24 20          	mov    %edi,0x20(%esp)
    1966:	8b 55 c4             	mov    -0x3c(%ebp),%edx
    1969:	89 54 24 1c          	mov    %edx,0x1c(%esp)
    196d:	8b 5d c0             	mov    -0x40(%ebp),%ebx
    1970:	89 5c 24 18          	mov    %ebx,0x18(%esp)
    1974:	8b 7d bc             	mov    -0x44(%ebp),%edi
    1977:	89 7c 24 14          	mov    %edi,0x14(%esp)
    197b:	8b 55 b8             	mov    -0x48(%ebp),%edx
    197e:	89 54 24 10          	mov    %edx,0x10(%esp)
    1982:	8b 5d b4             	mov    -0x4c(%ebp),%ebx
    1985:	89 5c 24 0c          	mov    %ebx,0xc(%esp)
    1989:	89 74 24 08          	mov    %esi,0x8(%esp)
    198d:	89 4c 24 04          	mov    %ecx,0x4(%esp)
    1991:	89 04 24             	mov    %eax,(%esp)
    1994:	e8 fc ff ff ff       	call   1995 <Java_DFS_1Solving_00024DFS_1intermediario_k_1dfs_1intermediario+0x12d>
			1995: R_386_PC32	_Z22dfs_intermediario_cudaiPiS_S_iiiiiS_S_
    1999:	83 c4 6c             	add    $0x6c,%esp
    199c:	5b                   	pop    %ebx
    199d:	5e                   	pop    %esi
    199e:	5f                   	pop    %edi
    199f:	5d                   	pop    %ebp
    19a0:	c3                   	ret    

000019a1 <Java_DFS_1Solving_00024DFS_1intermediario_dfs_1final>:
    19a1:	55                   	push   %ebp
    19a2:	89 e5                	mov    %esp,%ebp
    19a4:	5d                   	pop    %ebp
    19a5:	c3                   	ret    

000019a6 <Java_DFS_1Solving_00024DFS_1intermediario_getQTSolutions>:
    19a6:	55                   	push   %ebp
    19a7:	89 e5                	mov    %esp,%ebp
    19a9:	83 ec 38             	sub    $0x38,%esp
    19ac:	c7 44 24 08 00 00 00 	movl   $0x0,0x8(%esp)
    19b3:	00 
    19b4:	8b 45 10             	mov    0x10(%ebp),%eax
    19b7:	89 44 24 04          	mov    %eax,0x4(%esp)
    19bb:	8b 45 08             	mov    0x8(%ebp),%eax
    19be:	89 04 24             	mov    %eax,(%esp)
    19c1:	e8 fc ff ff ff       	call   19c2 <Java_DFS_1Solving_00024DFS_1intermediario_getQTSolutions+0x1c>
			19c2: R_386_PC32	_ZN7JNIEnv_19GetIntArrayElementsEP10_jintArrayPh
    19c6:	89 45 ec             	mov    %eax,-0x14(%ebp)
    19c9:	a1 00 00 00 00       	mov    0x0,%eax
			19ca: R_386_32	qtd_prefixos_segundo_dfs
    19ce:	c1 e0 02             	shl    $0x2,%eax
    19d1:	89 04 24             	mov    %eax,(%esp)
    19d4:	e8 fc ff ff ff       	call   19d5 <Java_DFS_1Solving_00024DFS_1intermediario_getQTSolutions+0x2f>
			19d5: R_386_PC32	malloc
    19d9:	89 45 f0             	mov    %eax,-0x10(%ebp)
    19dc:	a1 00 00 00 00       	mov    0x0,%eax
			19dd: R_386_32	qtd_prefixos_segundo_dfs
    19e1:	c1 e0 02             	shl    $0x2,%eax
    19e4:	89 04 24             	mov    %eax,(%esp)
    19e7:	e8 fc ff ff ff       	call   19e8 <Java_DFS_1Solving_00024DFS_1intermediario_getQTSolutions+0x42>
			19e8: R_386_PC32	malloc
    19ec:	89 45 f4             	mov    %eax,-0xc(%ebp)
    19ef:	e8 fc ff ff ff       	call   19f0 <Java_DFS_1Solving_00024DFS_1intermediario_getQTSolutions+0x4a>
			19f0: R_386_PC32	cudaDeviceSynchronize
    19f4:	a1 00 00 00 00       	mov    0x0,%eax
			19f5: R_386_32	qtd_prefixos_segundo_dfs
    19f9:	8d 14 85 00 00 00 00 	lea    0x0(,%eax,4),%edx
    1a00:	a1 00 00 00 00       	mov    0x0,%eax
			1a01: R_386_32	qtd_sols_d
    1a05:	c7 44 24 0c 02 00 00 	movl   $0x2,0xc(%esp)
    1a0c:	00 
    1a0d:	89 54 24 08          	mov    %edx,0x8(%esp)
    1a11:	89 44 24 04          	mov    %eax,0x4(%esp)
    1a15:	8b 45 f0             	mov    -0x10(%ebp),%eax
    1a18:	89 04 24             	mov    %eax,(%esp)
    1a1b:	e8 fc ff ff ff       	call   1a1c <Java_DFS_1Solving_00024DFS_1intermediario_getQTSolutions+0x76>
			1a1c: R_386_PC32	cudaMemcpy
    1a20:	c7 44 24 08 c9 00 00 	movl   $0xc9,0x8(%esp)
    1a27:	00 
    1a28:	c7 44 24 04 23 23 00 	movl   $0x2323,0x4(%esp)
    1a2f:	00 
			1a2c: R_386_RELATIVE	*ABS*
    1a30:	89 04 24             	mov    %eax,(%esp)
    1a33:	e8 90 fb ff ff       	call   15c8 <_ZL11HandleError9cudaErrorPKci>
    1a38:	a1 00 00 00 00       	mov    0x0,%eax
			1a39: R_386_32	qtd_prefixos_segundo_dfs
    1a3d:	8d 14 85 00 00 00 00 	lea    0x0(,%eax,4),%edx
    1a44:	a1 00 00 00 00       	mov    0x0,%eax
			1a45: R_386_32	melhor_sol_d
    1a49:	c7 44 24 0c 02 00 00 	movl   $0x2,0xc(%esp)
    1a50:	00 
    1a51:	89 54 24 08          	mov    %edx,0x8(%esp)
    1a55:	89 44 24 04          	mov    %eax,0x4(%esp)
    1a59:	8b 45 f4             	mov    -0xc(%ebp),%eax
    1a5c:	89 04 24             	mov    %eax,(%esp)
    1a5f:	e8 fc ff ff ff       	call   1a60 <Java_DFS_1Solving_00024DFS_1intermediario_getQTSolutions+0xba>
			1a60: R_386_PC32	cudaMemcpy
    1a64:	c7 44 24 08 ca 00 00 	movl   $0xca,0x8(%esp)
    1a6b:	00 
    1a6c:	c7 44 24 04 23 23 00 	movl   $0x2323,0x4(%esp)
    1a73:	00 
			1a70: R_386_RELATIVE	*ABS*
    1a74:	89 04 24             	mov    %eax,(%esp)
    1a77:	e8 4c fb ff ff       	call   15c8 <_ZL11HandleError9cudaErrorPKci>
    1a7c:	c7 45 e8 00 00 00 00 	movl   $0x0,-0x18(%ebp)
    1a83:	eb 42                	jmp    1ac7 <Java_DFS_1Solving_00024DFS_1intermediario_getQTSolutions+0x121>
    1a85:	8b 45 e8             	mov    -0x18(%ebp),%eax
    1a88:	8d 14 85 00 00 00 00 	lea    0x0(,%eax,4),%edx
    1a8f:	8b 45 f0             	mov    -0x10(%ebp),%eax
    1a92:	01 d0                	add    %edx,%eax
    1a94:	8b 00                	mov    (%eax),%eax
    1a96:	01 45 e0             	add    %eax,-0x20(%ebp)
    1a99:	8b 45 e8             	mov    -0x18(%ebp),%eax
    1a9c:	8d 14 85 00 00 00 00 	lea    0x0(,%eax,4),%edx
    1aa3:	8b 45 f4             	mov    -0xc(%ebp),%eax
    1aa6:	01 d0                	add    %edx,%eax
    1aa8:	8b 00                	mov    (%eax),%eax
    1aaa:	3b 45 e4             	cmp    -0x1c(%ebp),%eax
    1aad:	7d 14                	jge    1ac3 <Java_DFS_1Solving_00024DFS_1intermediario_getQTSolutions+0x11d>
    1aaf:	8b 45 e8             	mov    -0x18(%ebp),%eax
    1ab2:	8d 14 85 00 00 00 00 	lea    0x0(,%eax,4),%edx
    1ab9:	8b 45 f4             	mov    -0xc(%ebp),%eax
    1abc:	01 d0                	add    %edx,%eax
    1abe:	8b 00                	mov    (%eax),%eax
    1ac0:	89 45 e4             	mov    %eax,-0x1c(%ebp)
    1ac3:	83 45 e8 01          	addl   $0x1,-0x18(%ebp)
    1ac7:	a1 00 00 00 00       	mov    0x0,%eax
			1ac8: R_386_32	qtd_prefixos_segundo_dfs
    1acc:	39 45 e8             	cmp    %eax,-0x18(%ebp)
    1acf:	7c b4                	jl     1a85 <Java_DFS_1Solving_00024DFS_1intermediario_getQTSolutions+0xdf>
    1ad1:	a1 00 00 00 00       	mov    0x0,%eax
			1ad2: R_386_32	mat_d
    1ad6:	89 04 24             	mov    %eax,(%esp)
    1ad9:	e8 fc ff ff ff       	call   1ada <Java_DFS_1Solving_00024DFS_1intermediario_getQTSolutions+0x134>
			1ada: R_386_PC32	cudaFree
    1ade:	a1 00 00 00 00       	mov    0x0,%eax
			1adf: R_386_32	path_d
    1ae3:	89 04 24             	mov    %eax,(%esp)
    1ae6:	e8 fc ff ff ff       	call   1ae7 <Java_DFS_1Solving_00024DFS_1intermediario_getQTSolutions+0x141>
			1ae7: R_386_PC32	cudaFree
    1aeb:	a1 00 00 00 00       	mov    0x0,%eax
			1aec: R_386_32	path_second_dfs_d
    1af0:	89 04 24             	mov    %eax,(%esp)
    1af3:	e8 fc ff ff ff       	call   1af4 <Java_DFS_1Solving_00024DFS_1intermediario_getQTSolutions+0x14e>
			1af4: R_386_PC32	cudaFree
    1af8:	a1 00 00 00 00       	mov    0x0,%eax
			1af9: R_386_32	qtd_sols_d
    1afd:	89 04 24             	mov    %eax,(%esp)
    1b00:	e8 fc ff ff ff       	call   1b01 <Java_DFS_1Solving_00024DFS_1intermediario_getQTSolutions+0x15b>
			1b01: R_386_PC32	cudaFree
    1b05:	a1 00 00 00 00       	mov    0x0,%eax
			1b06: R_386_32	melhor_sol_d
    1b0a:	89 04 24             	mov    %eax,(%esp)
    1b0d:	e8 fc ff ff ff       	call   1b0e <Java_DFS_1Solving_00024DFS_1intermediario_getQTSolutions+0x168>
			1b0e: R_386_PC32	cudaFree
    1b12:	8b 45 ec             	mov    -0x14(%ebp),%eax
    1b15:	8b 55 e0             	mov    -0x20(%ebp),%edx
    1b18:	89 10                	mov    %edx,(%eax)
    1b1a:	8b 45 ec             	mov    -0x14(%ebp),%eax
    1b1d:	8d 50 04             	lea    0x4(%eax),%edx
    1b20:	8b 45 e4             	mov    -0x1c(%ebp),%eax
    1b23:	89 02                	mov    %eax,(%edx)
    1b25:	8b 45 ec             	mov    -0x14(%ebp),%eax
    1b28:	c9                   	leave  
    1b29:	c3                   	ret    

00001b2a <_ZL22____nv_dummy_param_refPv>:
    1b2a:	55                   	push   %ebp
    1b2b:	89 e5                	mov    %esp,%ebp
    1b2d:	8b 45 08             	mov    0x8(%ebp),%eax
    1b30:	a3 58 b0 01 00       	mov    %eax,0x1b058
			1b31: R_386_RELATIVE	*ABS*
    1b35:	5d                   	pop    %ebp
    1b36:	c3                   	ret    

00001b37 <_ZL26__cudaUnregisterBinaryUtilv>:
    1b37:	55                   	push   %ebp
    1b38:	89 e5                	mov    %esp,%ebp
    1b3a:	83 ec 18             	sub    $0x18,%esp
    1b3d:	c7 04 24 54 b0 01 00 	movl   $0x1b054,(%esp)
			1b40: R_386_RELATIVE	*ABS*
    1b44:	e8 e1 ff ff ff       	call   1b2a <_ZL22____nv_dummy_param_refPv>
    1b49:	a1 54 b0 01 00       	mov    0x1b054,%eax
			1b4a: R_386_RELATIVE	*ABS*
    1b4e:	89 04 24             	mov    %eax,(%esp)
    1b51:	e8 fc ff ff ff       	call   1b52 <_ZL26__cudaUnregisterBinaryUtilv+0x1b>
			1b52: R_386_PC32	__cudaUnregisterFatBinary
    1b56:	c9                   	leave  
    1b57:	c3                   	ret    

00001b58 <_ZL32__nv_init_managed_rt_with_modulePPv>:
    1b58:	55                   	push   %ebp
    1b59:	89 e5                	mov    %esp,%ebp
    1b5b:	83 ec 18             	sub    $0x18,%esp
    1b5e:	8b 45 08             	mov    0x8(%ebp),%eax
    1b61:	89 04 24             	mov    %eax,(%esp)
    1b64:	e8 fc ff ff ff       	call   1b65 <_ZL32__nv_init_managed_rt_with_modulePPv+0xd>
			1b65: R_386_PC32	__cudaInitModule
    1b69:	c9                   	leave  
    1b6a:	c3                   	ret    

00001b6b <_Z56__device_stub__Z22dfs_intermediario_cudaiPiS_S_iiiiiS_S_iPiS_S_iiiiiS_S_>:
    1b6b:	55                   	push   %ebp
    1b6c:	89 e5                	mov    %esp,%ebp
    1b6e:	83 ec 18             	sub    $0x18,%esp
    1b71:	c7 44 24 08 00 00 00 	movl   $0x0,0x8(%esp)
    1b78:	00 
    1b79:	c7 44 24 04 04 00 00 	movl   $0x4,0x4(%esp)
    1b80:	00 
    1b81:	8d 45 08             	lea    0x8(%ebp),%eax
    1b84:	89 04 24             	mov    %eax,(%esp)
    1b87:	e8 fc ff ff ff       	call   1b88 <_Z56__device_stub__Z22dfs_intermediario_cudaiPiS_S_iiiiiS_S_iPiS_S_iiiiiS_S_+0x1d>
			1b88: R_386_PC32	cudaSetupArgument
    1b8c:	85 c0                	test   %eax,%eax
    1b8e:	0f 95 c0             	setne  %al
    1b91:	84 c0                	test   %al,%al
    1b93:	74 05                	je     1b9a <_Z56__device_stub__Z22dfs_intermediario_cudaiPiS_S_iiiiiS_S_iPiS_S_iiiiiS_S_+0x2f>
    1b95:	e9 a7 01 00 00       	jmp    1d41 <_Z56__device_stub__Z22dfs_intermediario_cudaiPiS_S_iiiiiS_S_iPiS_S_iiiiiS_S_+0x1d6>
    1b9a:	c7 44 24 08 04 00 00 	movl   $0x4,0x8(%esp)
    1ba1:	00 
    1ba2:	c7 44 24 04 04 00 00 	movl   $0x4,0x4(%esp)
    1ba9:	00 
    1baa:	8d 45 0c             	lea    0xc(%ebp),%eax
    1bad:	89 04 24             	mov    %eax,(%esp)
    1bb0:	e8 fc ff ff ff       	call   1bb1 <_Z56__device_stub__Z22dfs_intermediario_cudaiPiS_S_iiiiiS_S_iPiS_S_iiiiiS_S_+0x46>
			1bb1: R_386_PC32	cudaSetupArgument
    1bb5:	85 c0                	test   %eax,%eax
    1bb7:	0f 95 c0             	setne  %al
    1bba:	84 c0                	test   %al,%al
    1bbc:	74 05                	je     1bc3 <_Z56__device_stub__Z22dfs_intermediario_cudaiPiS_S_iiiiiS_S_iPiS_S_iiiiiS_S_+0x58>
    1bbe:	e9 7e 01 00 00       	jmp    1d41 <_Z56__device_stub__Z22dfs_intermediario_cudaiPiS_S_iiiiiS_S_iPiS_S_iiiiiS_S_+0x1d6>
    1bc3:	c7 44 24 08 08 00 00 	movl   $0x8,0x8(%esp)
    1bca:	00 
    1bcb:	c7 44 24 04 04 00 00 	movl   $0x4,0x4(%esp)
    1bd2:	00 
    1bd3:	8d 45 10             	lea    0x10(%ebp),%eax
    1bd6:	89 04 24             	mov    %eax,(%esp)
    1bd9:	e8 fc ff ff ff       	call   1bda <_Z56__device_stub__Z22dfs_intermediario_cudaiPiS_S_iiiiiS_S_iPiS_S_iiiiiS_S_+0x6f>
			1bda: R_386_PC32	cudaSetupArgument
    1bde:	85 c0                	test   %eax,%eax
    1be0:	0f 95 c0             	setne  %al
    1be3:	84 c0                	test   %al,%al
    1be5:	74 05                	je     1bec <_Z56__device_stub__Z22dfs_intermediario_cudaiPiS_S_iiiiiS_S_iPiS_S_iiiiiS_S_+0x81>
    1be7:	e9 55 01 00 00       	jmp    1d41 <_Z56__device_stub__Z22dfs_intermediario_cudaiPiS_S_iiiiiS_S_iPiS_S_iiiiiS_S_+0x1d6>
    1bec:	c7 44 24 08 0c 00 00 	movl   $0xc,0x8(%esp)
    1bf3:	00 
    1bf4:	c7 44 24 04 04 00 00 	movl   $0x4,0x4(%esp)
    1bfb:	00 
    1bfc:	8d 45 14             	lea    0x14(%ebp),%eax
    1bff:	89 04 24             	mov    %eax,(%esp)
    1c02:	e8 fc ff ff ff       	call   1c03 <_Z56__device_stub__Z22dfs_intermediario_cudaiPiS_S_iiiiiS_S_iPiS_S_iiiiiS_S_+0x98>
			1c03: R_386_PC32	cudaSetupArgument
    1c07:	85 c0                	test   %eax,%eax
    1c09:	0f 95 c0             	setne  %al
    1c0c:	84 c0                	test   %al,%al
    1c0e:	74 05                	je     1c15 <_Z56__device_stub__Z22dfs_intermediario_cudaiPiS_S_iiiiiS_S_iPiS_S_iiiiiS_S_+0xaa>
    1c10:	e9 2c 01 00 00       	jmp    1d41 <_Z56__device_stub__Z22dfs_intermediario_cudaiPiS_S_iiiiiS_S_iPiS_S_iiiiiS_S_+0x1d6>
    1c15:	c7 44 24 08 10 00 00 	movl   $0x10,0x8(%esp)
    1c1c:	00 
    1c1d:	c7 44 24 04 04 00 00 	movl   $0x4,0x4(%esp)
    1c24:	00 
    1c25:	8d 45 18             	lea    0x18(%ebp),%eax
    1c28:	89 04 24             	mov    %eax,(%esp)
    1c2b:	e8 fc ff ff ff       	call   1c2c <_Z56__device_stub__Z22dfs_intermediario_cudaiPiS_S_iiiiiS_S_iPiS_S_iiiiiS_S_+0xc1>
			1c2c: R_386_PC32	cudaSetupArgument
    1c30:	85 c0                	test   %eax,%eax
    1c32:	0f 95 c0             	setne  %al
    1c35:	84 c0                	test   %al,%al
    1c37:	74 05                	je     1c3e <_Z56__device_stub__Z22dfs_intermediario_cudaiPiS_S_iiiiiS_S_iPiS_S_iiiiiS_S_+0xd3>
    1c39:	e9 03 01 00 00       	jmp    1d41 <_Z56__device_stub__Z22dfs_intermediario_cudaiPiS_S_iiiiiS_S_iPiS_S_iiiiiS_S_+0x1d6>
    1c3e:	c7 44 24 08 14 00 00 	movl   $0x14,0x8(%esp)
    1c45:	00 
    1c46:	c7 44 24 04 04 00 00 	movl   $0x4,0x4(%esp)
    1c4d:	00 
    1c4e:	8d 45 1c             	lea    0x1c(%ebp),%eax
    1c51:	89 04 24             	mov    %eax,(%esp)
    1c54:	e8 fc ff ff ff       	call   1c55 <_Z56__device_stub__Z22dfs_intermediario_cudaiPiS_S_iiiiiS_S_iPiS_S_iiiiiS_S_+0xea>
			1c55: R_386_PC32	cudaSetupArgument
    1c59:	85 c0                	test   %eax,%eax
    1c5b:	0f 95 c0             	setne  %al
    1c5e:	84 c0                	test   %al,%al
    1c60:	74 05                	je     1c67 <_Z56__device_stub__Z22dfs_intermediario_cudaiPiS_S_iiiiiS_S_iPiS_S_iiiiiS_S_+0xfc>
    1c62:	e9 da 00 00 00       	jmp    1d41 <_Z56__device_stub__Z22dfs_intermediario_cudaiPiS_S_iiiiiS_S_iPiS_S_iiiiiS_S_+0x1d6>
    1c67:	c7 44 24 08 18 00 00 	movl   $0x18,0x8(%esp)
    1c6e:	00 
    1c6f:	c7 44 24 04 04 00 00 	movl   $0x4,0x4(%esp)
    1c76:	00 
    1c77:	8d 45 20             	lea    0x20(%ebp),%eax
    1c7a:	89 04 24             	mov    %eax,(%esp)
    1c7d:	e8 fc ff ff ff       	call   1c7e <_Z56__device_stub__Z22dfs_intermediario_cudaiPiS_S_iiiiiS_S_iPiS_S_iiiiiS_S_+0x113>
			1c7e: R_386_PC32	cudaSetupArgument
    1c82:	85 c0                	test   %eax,%eax
    1c84:	0f 95 c0             	setne  %al
    1c87:	84 c0                	test   %al,%al
    1c89:	74 05                	je     1c90 <_Z56__device_stub__Z22dfs_intermediario_cudaiPiS_S_iiiiiS_S_iPiS_S_iiiiiS_S_+0x125>
    1c8b:	e9 b1 00 00 00       	jmp    1d41 <_Z56__device_stub__Z22dfs_intermediario_cudaiPiS_S_iiiiiS_S_iPiS_S_iiiiiS_S_+0x1d6>
    1c90:	c7 44 24 08 1c 00 00 	movl   $0x1c,0x8(%esp)
    1c97:	00 
    1c98:	c7 44 24 04 04 00 00 	movl   $0x4,0x4(%esp)
    1c9f:	00 
    1ca0:	8d 45 24             	lea    0x24(%ebp),%eax
    1ca3:	89 04 24             	mov    %eax,(%esp)
    1ca6:	e8 fc ff ff ff       	call   1ca7 <_Z56__device_stub__Z22dfs_intermediario_cudaiPiS_S_iiiiiS_S_iPiS_S_iiiiiS_S_+0x13c>
			1ca7: R_386_PC32	cudaSetupArgument
    1cab:	85 c0                	test   %eax,%eax
    1cad:	0f 95 c0             	setne  %al
    1cb0:	84 c0                	test   %al,%al
    1cb2:	74 05                	je     1cb9 <_Z56__device_stub__Z22dfs_intermediario_cudaiPiS_S_iiiiiS_S_iPiS_S_iiiiiS_S_+0x14e>
    1cb4:	e9 88 00 00 00       	jmp    1d41 <_Z56__device_stub__Z22dfs_intermediario_cudaiPiS_S_iiiiiS_S_iPiS_S_iiiiiS_S_+0x1d6>
    1cb9:	c7 44 24 08 20 00 00 	movl   $0x20,0x8(%esp)
    1cc0:	00 
    1cc1:	c7 44 24 04 04 00 00 	movl   $0x4,0x4(%esp)
    1cc8:	00 
    1cc9:	8d 45 28             	lea    0x28(%ebp),%eax
    1ccc:	89 04 24             	mov    %eax,(%esp)
    1ccf:	e8 fc ff ff ff       	call   1cd0 <_Z56__device_stub__Z22dfs_intermediario_cudaiPiS_S_iiiiiS_S_iPiS_S_iiiiiS_S_+0x165>
			1cd0: R_386_PC32	cudaSetupArgument
    1cd4:	85 c0                	test   %eax,%eax
    1cd6:	0f 95 c0             	setne  %al
    1cd9:	84 c0                	test   %al,%al
    1cdb:	74 02                	je     1cdf <_Z56__device_stub__Z22dfs_intermediario_cudaiPiS_S_iiiiiS_S_iPiS_S_iiiiiS_S_+0x174>
    1cdd:	eb 62                	jmp    1d41 <_Z56__device_stub__Z22dfs_intermediario_cudaiPiS_S_iiiiiS_S_iPiS_S_iiiiiS_S_+0x1d6>
    1cdf:	c7 44 24 08 24 00 00 	movl   $0x24,0x8(%esp)
    1ce6:	00 
    1ce7:	c7 44 24 04 04 00 00 	movl   $0x4,0x4(%esp)
    1cee:	00 
    1cef:	8d 45 2c             	lea    0x2c(%ebp),%eax
    1cf2:	89 04 24             	mov    %eax,(%esp)
    1cf5:	e8 fc ff ff ff       	call   1cf6 <_Z56__device_stub__Z22dfs_intermediario_cudaiPiS_S_iiiiiS_S_iPiS_S_iiiiiS_S_+0x18b>
			1cf6: R_386_PC32	cudaSetupArgument
    1cfa:	85 c0                	test   %eax,%eax
    1cfc:	0f 95 c0             	setne  %al
    1cff:	84 c0                	test   %al,%al
    1d01:	74 02                	je     1d05 <_Z56__device_stub__Z22dfs_intermediario_cudaiPiS_S_iiiiiS_S_iPiS_S_iiiiiS_S_+0x19a>
    1d03:	eb 3c                	jmp    1d41 <_Z56__device_stub__Z22dfs_intermediario_cudaiPiS_S_iiiiiS_S_iPiS_S_iiiiiS_S_+0x1d6>
    1d05:	c7 44 24 08 28 00 00 	movl   $0x28,0x8(%esp)
    1d0c:	00 
    1d0d:	c7 44 24 04 04 00 00 	movl   $0x4,0x4(%esp)
    1d14:	00 
    1d15:	8d 45 30             	lea    0x30(%ebp),%eax
    1d18:	89 04 24             	mov    %eax,(%esp)
    1d1b:	e8 fc ff ff ff       	call   1d1c <_Z56__device_stub__Z22dfs_intermediario_cudaiPiS_S_iiiiiS_S_iPiS_S_iiiiiS_S_+0x1b1>
			1d1c: R_386_PC32	cudaSetupArgument
    1d20:	85 c0                	test   %eax,%eax
    1d22:	0f 95 c0             	setne  %al
    1d25:	84 c0                	test   %al,%al
    1d27:	74 02                	je     1d2b <_Z56__device_stub__Z22dfs_intermediario_cudaiPiS_S_iiiiiS_S_iPiS_S_iiiiiS_S_+0x1c0>
    1d29:	eb 16                	jmp    1d41 <_Z56__device_stub__Z22dfs_intermediario_cudaiPiS_S_iiiiiS_S_iPiS_S_iiiiiS_S_+0x1d6>
    1d2b:	c7 05 5c b0 01 00 00 	movl   $0x0,0x1b05c
    1d32:	00 00 00 
			1d2d: R_386_RELATIVE	*ABS*
			1d31: R_386_32	_Z22dfs_intermediario_cudaiPiS_S_iiiiiS_S_
    1d35:	c7 04 24 00 00 00 00 	movl   $0x0,(%esp)
			1d38: R_386_32	_Z22dfs_intermediario_cudaiPiS_S_iiiiiS_S_
    1d3c:	e8 fc ff ff ff       	call   1d3d <_Z56__device_stub__Z22dfs_intermediario_cudaiPiS_S_iiiiiS_S_iPiS_S_iiiiiS_S_+0x1d2>
			1d3d: R_386_PC32	_ZN64_GLOBAL__N__40_tmpxft_0000153e_00000000_6_proxy_cpp1_ii_5bb7dfca10cudaLaunchIcEE9cudaErrorPT_
    1d41:	c9                   	leave  
    1d42:	c3                   	ret    

00001d43 <_Z22dfs_intermediario_cudaiPiS_S_iiiiiS_S_>:
    1d43:	55                   	push   %ebp
    1d44:	89 e5                	mov    %esp,%ebp
    1d46:	83 ec 38             	sub    $0x38,%esp
    1d49:	8b 45 30             	mov    0x30(%ebp),%eax
    1d4c:	89 44 24 28          	mov    %eax,0x28(%esp)
    1d50:	8b 45 2c             	mov    0x2c(%ebp),%eax
    1d53:	89 44 24 24          	mov    %eax,0x24(%esp)
    1d57:	8b 45 28             	mov    0x28(%ebp),%eax
    1d5a:	89 44 24 20          	mov    %eax,0x20(%esp)
    1d5e:	8b 45 24             	mov    0x24(%ebp),%eax
    1d61:	89 44 24 1c          	mov    %eax,0x1c(%esp)
    1d65:	8b 45 20             	mov    0x20(%ebp),%eax
    1d68:	89 44 24 18          	mov    %eax,0x18(%esp)
    1d6c:	8b 45 1c             	mov    0x1c(%ebp),%eax
    1d6f:	89 44 24 14          	mov    %eax,0x14(%esp)
    1d73:	8b 45 18             	mov    0x18(%ebp),%eax
    1d76:	89 44 24 10          	mov    %eax,0x10(%esp)
    1d7a:	8b 45 14             	mov    0x14(%ebp),%eax
    1d7d:	89 44 24 0c          	mov    %eax,0xc(%esp)
    1d81:	8b 45 10             	mov    0x10(%ebp),%eax
    1d84:	89 44 24 08          	mov    %eax,0x8(%esp)
    1d88:	8b 45 0c             	mov    0xc(%ebp),%eax
    1d8b:	89 44 24 04          	mov    %eax,0x4(%esp)
    1d8f:	8b 45 08             	mov    0x8(%ebp),%eax
    1d92:	89 04 24             	mov    %eax,(%esp)
    1d95:	e8 fc ff ff ff       	call   1d96 <_Z22dfs_intermediario_cudaiPiS_S_iiiiiS_S_+0x53>
			1d96: R_386_PC32	_Z56__device_stub__Z22dfs_intermediario_cudaiPiS_S_iiiiiS_S_iPiS_S_iiiiiS_S_
    1d9a:	c9                   	leave  
    1d9b:	c3                   	ret    

00001d9c <_ZL31__nv_cudaEntityRegisterCallbackPPv>:
    1d9c:	55                   	push   %ebp
    1d9d:	89 e5                	mov    %esp,%ebp
    1d9f:	83 ec 38             	sub    $0x38,%esp
    1da2:	8b 45 08             	mov    0x8(%ebp),%eax
    1da5:	a3 60 b0 01 00       	mov    %eax,0x1b060
			1da6: R_386_RELATIVE	*ABS*
    1daa:	8b 45 08             	mov    0x8(%ebp),%eax
    1dad:	89 04 24             	mov    %eax,(%esp)
    1db0:	e8 06 f8 ff ff       	call   15bb <_ZL37__nv_save_fatbinhandle_for_managed_rtPPv>
    1db5:	c7 44 24 24 00 00 00 	movl   $0x0,0x24(%esp)
    1dbc:	00 
    1dbd:	c7 44 24 20 00 00 00 	movl   $0x0,0x20(%esp)
    1dc4:	00 
    1dc5:	c7 44 24 1c 00 00 00 	movl   $0x0,0x1c(%esp)
    1dcc:	00 
    1dcd:	c7 44 24 18 00 00 00 	movl   $0x0,0x18(%esp)
    1dd4:	00 
    1dd5:	c7 44 24 14 00 00 00 	movl   $0x0,0x14(%esp)
    1ddc:	00 
    1ddd:	c7 44 24 10 ff ff ff 	movl   $0xffffffff,0x10(%esp)
    1de4:	ff 
    1de5:	c7 44 24 0c 44 23 00 	movl   $0x2344,0xc(%esp)
    1dec:	00 
			1de9: R_386_RELATIVE	*ABS*
    1ded:	c7 44 24 08 44 23 00 	movl   $0x2344,0x8(%esp)
    1df4:	00 
			1df1: R_386_RELATIVE	*ABS*
    1df5:	c7 44 24 04 00 00 00 	movl   $0x0,0x4(%esp)
    1dfc:	00 
			1df9: R_386_32	_Z22dfs_intermediario_cudaiPiS_S_iiiiiS_S_
    1dfd:	8b 45 08             	mov    0x8(%ebp),%eax
    1e00:	89 04 24             	mov    %eax,(%esp)
    1e03:	e8 fc ff ff ff       	call   1e04 <_ZL31__nv_cudaEntityRegisterCallbackPPv+0x68>
			1e04: R_386_PC32	__cudaRegisterFunction
    1e08:	c9                   	leave  
    1e09:	c3                   	ret    

00001e0a <_ZL77__sti____cudaRegisterAll_40_tmpxft_0000153e_00000000_6_proxy_cpp1_ii_5bb7dfcav>:
    1e0a:	55                   	push   %ebp
    1e0b:	89 e5                	mov    %esp,%ebp
    1e0d:	83 ec 18             	sub    $0x18,%esp
    1e10:	c7 44 24 0c 2a 1b 00 	movl   $0x1b2a,0xc(%esp)
    1e17:	00 
			1e14: R_386_RELATIVE	*ABS*
    1e18:	c7 44 24 08 20 4c 00 	movl   $0x4c20,0x8(%esp)
    1e1f:	00 
			1e1c: R_386_RELATIVE	*ABS*
    1e20:	c7 44 24 04 00 00 00 	movl   $0x0,0x4(%esp)
    1e27:	00 
			1e24: R_386_32	__fatbinwrap_40_tmpxft_0000153e_00000000_6_proxy_cpp1_ii_5bb7dfca
    1e28:	c7 04 24 9c 1d 00 00 	movl   $0x1d9c,(%esp)
			1e2b: R_386_RELATIVE	*ABS*
    1e2f:	e8 fc ff ff ff       	call   1e30 <_ZL77__sti____cudaRegisterAll_40_tmpxft_0000153e_00000000_6_proxy_cpp1_ii_5bb7dfcav+0x26>
			1e30: R_386_PC32	__cudaRegisterLinkedBinary_40_tmpxft_0000153e_00000000_6_proxy_cpp1_ii_5bb7dfca
    1e34:	c9                   	leave  
    1e35:	c3                   	ret    

00001e36 <_ZN4dim3C1Ejjj>:
    1e36:	55                   	push   %ebp
    1e37:	89 e5                	mov    %esp,%ebp
    1e39:	8b 45 08             	mov    0x8(%ebp),%eax
    1e3c:	8b 55 0c             	mov    0xc(%ebp),%edx
    1e3f:	89 10                	mov    %edx,(%eax)
    1e41:	8b 45 08             	mov    0x8(%ebp),%eax
    1e44:	8b 55 10             	mov    0x10(%ebp),%edx
    1e47:	89 50 04             	mov    %edx,0x4(%eax)
    1e4a:	8b 45 08             	mov    0x8(%ebp),%eax
    1e4d:	8b 55 14             	mov    0x14(%ebp),%edx
    1e50:	89 50 08             	mov    %edx,0x8(%eax)
    1e53:	5d                   	pop    %ebp
    1e54:	c3                   	ret    
    1e55:	90                   	nop

00001e56 <_ZN7JNIEnv_19GetIntArrayElementsEP10_jintArrayPh>:
    1e56:	55                   	push   %ebp
    1e57:	89 e5                	mov    %esp,%ebp
    1e59:	83 ec 18             	sub    $0x18,%esp
    1e5c:	8b 45 08             	mov    0x8(%ebp),%eax
    1e5f:	8b 00                	mov    (%eax),%eax
    1e61:	8b 80 ec 02 00 00    	mov    0x2ec(%eax),%eax
    1e67:	8b 55 10             	mov    0x10(%ebp),%edx
    1e6a:	89 54 24 08          	mov    %edx,0x8(%esp)
    1e6e:	8b 55 0c             	mov    0xc(%ebp),%edx
    1e71:	89 54 24 04          	mov    %edx,0x4(%esp)
    1e75:	8b 55 08             	mov    0x8(%ebp),%edx
    1e78:	89 14 24             	mov    %edx,(%esp)
    1e7b:	ff d0                	call   *%eax
    1e7d:	c9                   	leave  
    1e7e:	c3                   	ret    

00001e7f <_ZN64_GLOBAL__N__40_tmpxft_0000153e_00000000_6_proxy_cpp1_ii_5bb7dfca10cudaLaunchIcEE9cudaErrorPT_>:
    1e7f:	55                   	push   %ebp
    1e80:	89 e5                	mov    %esp,%ebp
    1e82:	83 ec 18             	sub    $0x18,%esp
    1e85:	8b 45 08             	mov    0x8(%ebp),%eax
    1e88:	89 04 24             	mov    %eax,(%esp)
    1e8b:	e8 fc ff ff ff       	call   1e8c <_ZN64_GLOBAL__N__40_tmpxft_0000153e_00000000_6_proxy_cpp1_ii_5bb7dfca10cudaLaunchIcEE9cudaErrorPT_+0xd>
			1e8c: R_386_PC32	cudaLaunch
    1e90:	c9                   	leave  
    1e91:	c3                   	ret    

00001e92 <_ZL37__nv_save_fatbinhandle_for_managed_rtPPv>:
    1e92:	55                   	push   %ebp
    1e93:	89 e5                	mov    %esp,%ebp
    1e95:	8b 45 08             	mov    0x8(%ebp),%eax
    1e98:	a3 68 b0 01 00       	mov    %eax,0x1b068
			1e99: R_386_RELATIVE	*ABS*
    1e9d:	5d                   	pop    %ebp
    1e9e:	c3                   	ret    

00001e9f <_Z14call_dfs_finaliiiPiS_iiS_S_i>:
    1e9f:	55                   	push   %ebp
    1ea0:	89 e5                	mov    %esp,%ebp
    1ea2:	83 ec 28             	sub    $0x28,%esp
    1ea5:	c7 45 f4 01 00 00 00 	movl   $0x1,-0xc(%ebp)
    1eac:	8b 45 f4             	mov    -0xc(%ebp),%eax
    1eaf:	89 04 24             	mov    %eax,(%esp)
    1eb2:	e8 fc ff ff ff       	call   1eb3 <_Z14call_dfs_finaliiiPiS_iiS_S_i+0x14>
			1eb3: R_386_PC32	exit

00001eb7 <_ZL22____nv_dummy_param_refPv>:
    1eb7:	55                   	push   %ebp
    1eb8:	89 e5                	mov    %esp,%ebp
    1eba:	8b 45 08             	mov    0x8(%ebp),%eax
    1ebd:	a3 70 b0 01 00       	mov    %eax,0x1b070
			1ebe: R_386_RELATIVE	*ABS*
    1ec2:	5d                   	pop    %ebp
    1ec3:	c3                   	ret    

00001ec4 <_ZL26__cudaUnregisterBinaryUtilv>:
    1ec4:	55                   	push   %ebp
    1ec5:	89 e5                	mov    %esp,%ebp
    1ec7:	83 ec 18             	sub    $0x18,%esp
    1eca:	c7 04 24 6c b0 01 00 	movl   $0x1b06c,(%esp)
			1ecd: R_386_RELATIVE	*ABS*
    1ed1:	e8 e1 ff ff ff       	call   1eb7 <_ZL22____nv_dummy_param_refPv>
    1ed6:	a1 6c b0 01 00       	mov    0x1b06c,%eax
			1ed7: R_386_RELATIVE	*ABS*
    1edb:	89 04 24             	mov    %eax,(%esp)
    1ede:	e8 fc ff ff ff       	call   1edf <_ZL26__cudaUnregisterBinaryUtilv+0x1b>
			1edf: R_386_PC32	__cudaUnregisterFatBinary
    1ee3:	c9                   	leave  
    1ee4:	c3                   	ret    

00001ee5 <_ZL32__nv_init_managed_rt_with_modulePPv>:
    1ee5:	55                   	push   %ebp
    1ee6:	89 e5                	mov    %esp,%ebp
    1ee8:	83 ec 18             	sub    $0x18,%esp
    1eeb:	8b 45 08             	mov    0x8(%ebp),%eax
    1eee:	89 04 24             	mov    %eax,(%esp)
    1ef1:	e8 fc ff ff ff       	call   1ef2 <_ZL32__nv_init_managed_rt_with_modulePPv+0xd>
			1ef2: R_386_PC32	__cudaInitModule
    1ef6:	c9                   	leave  
    1ef7:	c3                   	ret    

00001ef8 <_Z38__device_stub__Z9dfs_finaliPiS_iiS_S_iiPiS_iiS_S_i>:
    1ef8:	55                   	push   %ebp
    1ef9:	89 e5                	mov    %esp,%ebp
    1efb:	83 ec 18             	sub    $0x18,%esp
    1efe:	c7 44 24 08 00 00 00 	movl   $0x0,0x8(%esp)
    1f05:	00 
    1f06:	c7 44 24 04 04 00 00 	movl   $0x4,0x4(%esp)
    1f0d:	00 
    1f0e:	8d 45 08             	lea    0x8(%ebp),%eax
    1f11:	89 04 24             	mov    %eax,(%esp)
    1f14:	e8 fc ff ff ff       	call   1f15 <_Z38__device_stub__Z9dfs_finaliPiS_iiS_S_iiPiS_iiS_S_i+0x1d>
			1f15: R_386_PC32	cudaSetupArgument
    1f19:	85 c0                	test   %eax,%eax
    1f1b:	0f 95 c0             	setne  %al
    1f1e:	84 c0                	test   %al,%al
    1f20:	74 05                	je     1f27 <_Z38__device_stub__Z9dfs_finaliPiS_iiS_S_iiPiS_iiS_S_i+0x2f>
    1f22:	e9 2c 01 00 00       	jmp    2053 <_Z38__device_stub__Z9dfs_finaliPiS_iiS_S_iiPiS_iiS_S_i+0x15b>
    1f27:	c7 44 24 08 04 00 00 	movl   $0x4,0x8(%esp)
    1f2e:	00 
    1f2f:	c7 44 24 04 04 00 00 	movl   $0x4,0x4(%esp)
    1f36:	00 
    1f37:	8d 45 0c             	lea    0xc(%ebp),%eax
    1f3a:	89 04 24             	mov    %eax,(%esp)
    1f3d:	e8 fc ff ff ff       	call   1f3e <_Z38__device_stub__Z9dfs_finaliPiS_iiS_S_iiPiS_iiS_S_i+0x46>
			1f3e: R_386_PC32	cudaSetupArgument
    1f42:	85 c0                	test   %eax,%eax
    1f44:	0f 95 c0             	setne  %al
    1f47:	84 c0                	test   %al,%al
    1f49:	74 05                	je     1f50 <_Z38__device_stub__Z9dfs_finaliPiS_iiS_S_iiPiS_iiS_S_i+0x58>
    1f4b:	e9 03 01 00 00       	jmp    2053 <_Z38__device_stub__Z9dfs_finaliPiS_iiS_S_iiPiS_iiS_S_i+0x15b>
    1f50:	c7 44 24 08 08 00 00 	movl   $0x8,0x8(%esp)
    1f57:	00 
    1f58:	c7 44 24 04 04 00 00 	movl   $0x4,0x4(%esp)
    1f5f:	00 
    1f60:	8d 45 10             	lea    0x10(%ebp),%eax
    1f63:	89 04 24             	mov    %eax,(%esp)
    1f66:	e8 fc ff ff ff       	call   1f67 <_Z38__device_stub__Z9dfs_finaliPiS_iiS_S_iiPiS_iiS_S_i+0x6f>
			1f67: R_386_PC32	cudaSetupArgument
    1f6b:	85 c0                	test   %eax,%eax
    1f6d:	0f 95 c0             	setne  %al
    1f70:	84 c0                	test   %al,%al
    1f72:	74 05                	je     1f79 <_Z38__device_stub__Z9dfs_finaliPiS_iiS_S_iiPiS_iiS_S_i+0x81>
    1f74:	e9 da 00 00 00       	jmp    2053 <_Z38__device_stub__Z9dfs_finaliPiS_iiS_S_iiPiS_iiS_S_i+0x15b>
    1f79:	c7 44 24 08 0c 00 00 	movl   $0xc,0x8(%esp)
    1f80:	00 
    1f81:	c7 44 24 04 04 00 00 	movl   $0x4,0x4(%esp)
    1f88:	00 
    1f89:	8d 45 14             	lea    0x14(%ebp),%eax
    1f8c:	89 04 24             	mov    %eax,(%esp)
    1f8f:	e8 fc ff ff ff       	call   1f90 <_Z38__device_stub__Z9dfs_finaliPiS_iiS_S_iiPiS_iiS_S_i+0x98>
			1f90: R_386_PC32	cudaSetupArgument
    1f94:	85 c0                	test   %eax,%eax
    1f96:	0f 95 c0             	setne  %al
    1f99:	84 c0                	test   %al,%al
    1f9b:	74 05                	je     1fa2 <_Z38__device_stub__Z9dfs_finaliPiS_iiS_S_iiPiS_iiS_S_i+0xaa>
    1f9d:	e9 b1 00 00 00       	jmp    2053 <_Z38__device_stub__Z9dfs_finaliPiS_iiS_S_iiPiS_iiS_S_i+0x15b>
    1fa2:	c7 44 24 08 10 00 00 	movl   $0x10,0x8(%esp)
    1fa9:	00 
    1faa:	c7 44 24 04 04 00 00 	movl   $0x4,0x4(%esp)
    1fb1:	00 
    1fb2:	8d 45 18             	lea    0x18(%ebp),%eax
    1fb5:	89 04 24             	mov    %eax,(%esp)
    1fb8:	e8 fc ff ff ff       	call   1fb9 <_Z38__device_stub__Z9dfs_finaliPiS_iiS_S_iiPiS_iiS_S_i+0xc1>
			1fb9: R_386_PC32	cudaSetupArgument
    1fbd:	85 c0                	test   %eax,%eax
    1fbf:	0f 95 c0             	setne  %al
    1fc2:	84 c0                	test   %al,%al
    1fc4:	74 05                	je     1fcb <_Z38__device_stub__Z9dfs_finaliPiS_iiS_S_iiPiS_iiS_S_i+0xd3>
    1fc6:	e9 88 00 00 00       	jmp    2053 <_Z38__device_stub__Z9dfs_finaliPiS_iiS_S_iiPiS_iiS_S_i+0x15b>
    1fcb:	c7 44 24 08 14 00 00 	movl   $0x14,0x8(%esp)
    1fd2:	00 
    1fd3:	c7 44 24 04 04 00 00 	movl   $0x4,0x4(%esp)
    1fda:	00 
    1fdb:	8d 45 1c             	lea    0x1c(%ebp),%eax
    1fde:	89 04 24             	mov    %eax,(%esp)
    1fe1:	e8 fc ff ff ff       	call   1fe2 <_Z38__device_stub__Z9dfs_finaliPiS_iiS_S_iiPiS_iiS_S_i+0xea>
			1fe2: R_386_PC32	cudaSetupArgument
    1fe6:	85 c0                	test   %eax,%eax
    1fe8:	0f 95 c0             	setne  %al
    1feb:	84 c0                	test   %al,%al
    1fed:	74 02                	je     1ff1 <_Z38__device_stub__Z9dfs_finaliPiS_iiS_S_iiPiS_iiS_S_i+0xf9>
    1fef:	eb 62                	jmp    2053 <_Z38__device_stub__Z9dfs_finaliPiS_iiS_S_iiPiS_iiS_S_i+0x15b>
    1ff1:	c7 44 24 08 18 00 00 	movl   $0x18,0x8(%esp)
    1ff8:	00 
    1ff9:	c7 44 24 04 04 00 00 	movl   $0x4,0x4(%esp)
    2000:	00 
    2001:	8d 45 20             	lea    0x20(%ebp),%eax
    2004:	89 04 24             	mov    %eax,(%esp)
    2007:	e8 fc ff ff ff       	call   2008 <_Z38__device_stub__Z9dfs_finaliPiS_iiS_S_iiPiS_iiS_S_i+0x110>
			2008: R_386_PC32	cudaSetupArgument
    200c:	85 c0                	test   %eax,%eax
    200e:	0f 95 c0             	setne  %al
    2011:	84 c0                	test   %al,%al
    2013:	74 02                	je     2017 <_Z38__device_stub__Z9dfs_finaliPiS_iiS_S_iiPiS_iiS_S_i+0x11f>
    2015:	eb 3c                	jmp    2053 <_Z38__device_stub__Z9dfs_finaliPiS_iiS_S_iiPiS_iiS_S_i+0x15b>
    2017:	c7 44 24 08 1c 00 00 	movl   $0x1c,0x8(%esp)
    201e:	00 
    201f:	c7 44 24 04 04 00 00 	movl   $0x4,0x4(%esp)
    2026:	00 
    2027:	8d 45 24             	lea    0x24(%ebp),%eax
    202a:	89 04 24             	mov    %eax,(%esp)
    202d:	e8 fc ff ff ff       	call   202e <_Z38__device_stub__Z9dfs_finaliPiS_iiS_S_iiPiS_iiS_S_i+0x136>
			202e: R_386_PC32	cudaSetupArgument
    2032:	85 c0                	test   %eax,%eax
    2034:	0f 95 c0             	setne  %al
    2037:	84 c0                	test   %al,%al
    2039:	74 02                	je     203d <_Z38__device_stub__Z9dfs_finaliPiS_iiS_S_iiPiS_iiS_S_i+0x145>
    203b:	eb 16                	jmp    2053 <_Z38__device_stub__Z9dfs_finaliPiS_iiS_S_iiPiS_iiS_S_i+0x15b>
    203d:	c7 05 74 b0 01 00 00 	movl   $0x0,0x1b074
    2044:	00 00 00 
			203f: R_386_RELATIVE	*ABS*
			2043: R_386_32	_Z9dfs_finaliPiS_iiS_S_i
    2047:	c7 04 24 00 00 00 00 	movl   $0x0,(%esp)
			204a: R_386_32	_Z9dfs_finaliPiS_iiS_S_i
    204e:	e8 fc ff ff ff       	call   204f <_Z38__device_stub__Z9dfs_finaliPiS_iiS_S_iiPiS_iiS_S_i+0x157>
			204f: R_386_PC32	_ZN68_GLOBAL__N__44_tmpxft_00001564_00000000_6_dfs_final_cpp1_ii_9b25816d10cudaLaunchIcEE9cudaErrorPT_
    2053:	c9                   	leave  
    2054:	c3                   	ret    

00002055 <_Z9dfs_finaliPiS_iiS_S_i>:
    2055:	55                   	push   %ebp
    2056:	89 e5                	mov    %esp,%ebp
    2058:	83 ec 28             	sub    $0x28,%esp
    205b:	8b 45 24             	mov    0x24(%ebp),%eax
    205e:	89 44 24 1c          	mov    %eax,0x1c(%esp)
    2062:	8b 45 20             	mov    0x20(%ebp),%eax
    2065:	89 44 24 18          	mov    %eax,0x18(%esp)
    2069:	8b 45 1c             	mov    0x1c(%ebp),%eax
    206c:	89 44 24 14          	mov    %eax,0x14(%esp)
    2070:	8b 45 18             	mov    0x18(%ebp),%eax
    2073:	89 44 24 10          	mov    %eax,0x10(%esp)
    2077:	8b 45 14             	mov    0x14(%ebp),%eax
    207a:	89 44 24 0c          	mov    %eax,0xc(%esp)
    207e:	8b 45 10             	mov    0x10(%ebp),%eax
    2081:	89 44 24 08          	mov    %eax,0x8(%esp)
    2085:	8b 45 0c             	mov    0xc(%ebp),%eax
    2088:	89 44 24 04          	mov    %eax,0x4(%esp)
    208c:	8b 45 08             	mov    0x8(%ebp),%eax
    208f:	89 04 24             	mov    %eax,(%esp)
    2092:	e8 fc ff ff ff       	call   2093 <_Z9dfs_finaliPiS_iiS_S_i+0x3e>
			2093: R_386_PC32	_Z38__device_stub__Z9dfs_finaliPiS_iiS_S_iiPiS_iiS_S_i
    2097:	c9                   	leave  
    2098:	c3                   	ret    

00002099 <_ZL31__nv_cudaEntityRegisterCallbackPPv>:
    2099:	55                   	push   %ebp
    209a:	89 e5                	mov    %esp,%ebp
    209c:	83 ec 38             	sub    $0x38,%esp
    209f:	8b 45 08             	mov    0x8(%ebp),%eax
    20a2:	a3 78 b0 01 00       	mov    %eax,0x1b078
			20a3: R_386_RELATIVE	*ABS*
    20a7:	8b 45 08             	mov    0x8(%ebp),%eax
    20aa:	89 04 24             	mov    %eax,(%esp)
    20ad:	e8 e0 fd ff ff       	call   1e92 <_ZL37__nv_save_fatbinhandle_for_managed_rtPPv>
    20b2:	c7 44 24 24 00 00 00 	movl   $0x0,0x24(%esp)
    20b9:	00 
    20ba:	c7 44 24 20 00 00 00 	movl   $0x0,0x20(%esp)
    20c1:	00 
    20c2:	c7 44 24 1c 00 00 00 	movl   $0x0,0x1c(%esp)
    20c9:	00 
    20ca:	c7 44 24 18 00 00 00 	movl   $0x0,0x18(%esp)
    20d1:	00 
    20d2:	c7 44 24 14 00 00 00 	movl   $0x0,0x14(%esp)
    20d9:	00 
    20da:	c7 44 24 10 ff ff ff 	movl   $0xffffffff,0x10(%esp)
    20e1:	ff 
    20e2:	c7 44 24 0c 6f 23 00 	movl   $0x236f,0xc(%esp)
    20e9:	00 
			20e6: R_386_RELATIVE	*ABS*
    20ea:	c7 44 24 08 6f 23 00 	movl   $0x236f,0x8(%esp)
    20f1:	00 
			20ee: R_386_RELATIVE	*ABS*
    20f2:	c7 44 24 04 00 00 00 	movl   $0x0,0x4(%esp)
    20f9:	00 
			20f6: R_386_32	_Z9dfs_finaliPiS_iiS_S_i
    20fa:	8b 45 08             	mov    0x8(%ebp),%eax
    20fd:	89 04 24             	mov    %eax,(%esp)
    2100:	e8 fc ff ff ff       	call   2101 <_ZL31__nv_cudaEntityRegisterCallbackPPv+0x68>
			2101: R_386_PC32	__cudaRegisterFunction
    2105:	c9                   	leave  
    2106:	c3                   	ret    

00002107 <_ZL81__sti____cudaRegisterAll_44_tmpxft_00001564_00000000_6_dfs_final_cpp1_ii_9b25816dv>:
    2107:	55                   	push   %ebp
    2108:	89 e5                	mov    %esp,%ebp
    210a:	83 ec 18             	sub    $0x18,%esp
    210d:	c7 44 24 0c b7 1e 00 	movl   $0x1eb7,0xc(%esp)
    2114:	00 
			2111: R_386_RELATIVE	*ABS*
    2115:	c7 44 24 08 60 4c 00 	movl   $0x4c60,0x8(%esp)
    211c:	00 
			2119: R_386_RELATIVE	*ABS*
    211d:	c7 44 24 04 00 00 00 	movl   $0x0,0x4(%esp)
    2124:	00 
			2121: R_386_32	__fatbinwrap_44_tmpxft_00001564_00000000_6_dfs_final_cpp1_ii_9b25816d
    2125:	c7 04 24 99 20 00 00 	movl   $0x2099,(%esp)
			2128: R_386_RELATIVE	*ABS*
    212c:	e8 fc ff ff ff       	call   212d <_ZL81__sti____cudaRegisterAll_44_tmpxft_00001564_00000000_6_dfs_final_cpp1_ii_9b25816dv+0x26>
			212d: R_386_PC32	__cudaRegisterLinkedBinary_44_tmpxft_00001564_00000000_6_dfs_final_cpp1_ii_9b25816d
    2131:	c9                   	leave  
    2132:	c3                   	ret    

00002133 <_ZN68_GLOBAL__N__44_tmpxft_00001564_00000000_6_dfs_final_cpp1_ii_9b25816d10cudaLaunchIcEE9cudaErrorPT_>:
    2133:	55                   	push   %ebp
    2134:	89 e5                	mov    %esp,%ebp
    2136:	83 ec 18             	sub    $0x18,%esp
    2139:	8b 45 08             	mov    0x8(%ebp),%eax
    213c:	89 04 24             	mov    %eax,(%esp)
    213f:	e8 fc ff ff ff       	call   2140 <_ZN68_GLOBAL__N__44_tmpxft_00001564_00000000_6_dfs_final_cpp1_ii_9b25816d10cudaLaunchIcEE9cudaErrorPT_+0xd>
			2140: R_386_PC32	cudaLaunch
    2144:	c9                   	leave  
    2145:	c3                   	ret    

00002146 <__cudaUnregisterBinaryUtil>:
    2146:	55                   	push   %ebp
    2147:	89 e5                	mov    %esp,%ebp
    2149:	83 ec 18             	sub    $0x18,%esp
    214c:	a1 7c b0 01 00       	mov    0x1b07c,%eax
			214d: R_386_RELATIVE	*ABS*
    2151:	89 04 24             	mov    %eax,(%esp)
    2154:	e8 fc ff ff ff       	call   2155 <__cudaUnregisterBinaryUtil+0xf>
			2155: R_386_PC32	__cudaUnregisterFatBinary
    2159:	c9                   	leave  
    215a:	c3                   	ret    

0000215b <__cudaRegisterLinkedBinary_40_tmpxft_0000153e_00000000_6_proxy_cpp1_ii_5bb7dfca>:
    215b:	55                   	push   %ebp
    215c:	89 e5                	mov    %esp,%ebp
    215e:	83 ec 18             	sub    $0x18,%esp
    2161:	c7 05 90 b0 01 00 9a 	movl   $0x4c9a,0x1b090
    2168:	4c 00 00 
			2163: R_386_RELATIVE	*ABS*
			2167: R_386_RELATIVE	*ABS*
    216b:	c7 04 24 90 b0 01 00 	movl   $0x1b090,(%esp)
			216e: R_386_RELATIVE	*ABS*
    2172:	8b 45 14             	mov    0x14(%ebp),%eax
    2175:	ff d0                	call   *%eax
    2177:	c7 44 24 08 9a 4c 00 	movl   $0x4c9a,0x8(%esp)
    217e:	00 
			217b: R_386_RELATIVE	*ABS*
    217f:	8b 45 08             	mov    0x8(%ebp),%eax
    2182:	89 44 24 04          	mov    %eax,0x4(%esp)
    2186:	c7 04 24 00 00 00 00 	movl   $0x0,(%esp)
			2189: R_386_32	__fatbinwrap_40_tmpxft_0000153e_00000000_6_proxy_cpp1_ii_5bb7dfca
    218d:	e8 74 00 00 00       	call   2206 <_ZL26__cudaRegisterLinkedBinaryPK19__fatBinC_Wrapper_tPFvPPvES2_>
    2192:	c9                   	leave  
    2193:	c3                   	ret    

00002194 <__cudaRegisterLinkedBinary_44_tmpxft_00001564_00000000_6_dfs_final_cpp1_ii_9b25816d>:
    2194:	55                   	push   %ebp
    2195:	89 e5                	mov    %esp,%ebp
    2197:	83 ec 18             	sub    $0x18,%esp
    219a:	c7 05 a8 b0 01 00 d4 	movl   $0x4cd4,0x1b0a8
    21a1:	4c 00 00 
			219c: R_386_RELATIVE	*ABS*
			21a0: R_386_RELATIVE	*ABS*
    21a4:	c7 04 24 a8 b0 01 00 	movl   $0x1b0a8,(%esp)
			21a7: R_386_RELATIVE	*ABS*
    21ab:	8b 45 14             	mov    0x14(%ebp),%eax
    21ae:	ff d0                	call   *%eax
    21b0:	c7 44 24 08 d4 4c 00 	movl   $0x4cd4,0x8(%esp)
    21b7:	00 
			21b4: R_386_RELATIVE	*ABS*
    21b8:	8b 45 08             	mov    0x8(%ebp),%eax
    21bb:	89 44 24 04          	mov    %eax,0x4(%esp)
    21bf:	c7 04 24 00 00 00 00 	movl   $0x0,(%esp)
			21c2: R_386_32	__fatbinwrap_44_tmpxft_00001564_00000000_6_dfs_final_cpp1_ii_9b25816d
    21c6:	e8 3b 00 00 00       	call   2206 <_ZL26__cudaRegisterLinkedBinaryPK19__fatBinC_Wrapper_tPFvPPvES2_>
    21cb:	c9                   	leave  
    21cc:	c3                   	ret    

000021cd <__cudaRegisterLinkedBinary_66_tmpxft_000015c6_00000000_12_cuda_device_runtime_compute_50_cpp1_ii_5f6993ef>:
    21cd:	55                   	push   %ebp
    21ce:	89 e5                	mov    %esp,%ebp
    21d0:	83 ec 18             	sub    $0x18,%esp
    21d3:	c7 05 ac b0 01 00 12 	movl   $0x4d12,0x1b0ac
    21da:	4d 00 00 
			21d5: R_386_RELATIVE	*ABS*
			21d9: R_386_RELATIVE	*ABS*
    21dd:	c7 04 24 ac b0 01 00 	movl   $0x1b0ac,(%esp)
			21e0: R_386_RELATIVE	*ABS*
    21e4:	8b 45 14             	mov    0x14(%ebp),%eax
    21e7:	ff d0                	call   *%eax
    21e9:	c7 44 24 08 12 4d 00 	movl   $0x4d12,0x8(%esp)
    21f0:	00 
			21ed: R_386_RELATIVE	*ABS*
    21f1:	8b 45 08             	mov    0x8(%ebp),%eax
    21f4:	89 44 24 04          	mov    %eax,0x4(%esp)
    21f8:	c7 04 24 00 00 00 00 	movl   $0x0,(%esp)
			21fb: R_386_32	__fatbinwrap_66_tmpxft_000015c6_00000000_12_cuda_device_runtime_compute_50_cpp1_ii_5f6993ef
    21ff:	e8 02 00 00 00       	call   2206 <_ZL26__cudaRegisterLinkedBinaryPK19__fatBinC_Wrapper_tPFvPPvES2_>
    2204:	c9                   	leave  
    2205:	c3                   	ret    

00002206 <_ZL26__cudaRegisterLinkedBinaryPK19__fatBinC_Wrapper_tPFvPPvES2_>:
    2206:	55                   	push   %ebp
    2207:	89 e5                	mov    %esp,%ebp
    2209:	83 ec 18             	sub    $0x18,%esp
    220c:	a1 94 b0 01 00       	mov    0x1b094,%eax
			220d: R_386_RELATIVE	*ABS*
    2211:	8b 55 08             	mov    0x8(%ebp),%edx
    2214:	8b 52 08             	mov    0x8(%edx),%edx
    2217:	89 14 85 80 b0 01 00 	mov    %edx,0x1b080(,%eax,4)
			221a: R_386_RELATIVE	*ABS*
    221e:	a1 94 b0 01 00       	mov    0x1b094,%eax
			221f: R_386_RELATIVE	*ABS*
    2223:	8b 55 0c             	mov    0xc(%ebp),%edx
    2226:	89 14 85 98 b0 01 00 	mov    %edx,0x1b098(,%eax,4)
			2229: R_386_RELATIVE	*ABS*
    222d:	a1 94 b0 01 00       	mov    0x1b094,%eax
			222e: R_386_RELATIVE	*ABS*
    2232:	83 c0 01             	add    $0x1,%eax
    2235:	a3 94 b0 01 00       	mov    %eax,0x1b094
			2236: R_386_RELATIVE	*ABS*
    223a:	a1 94 b0 01 00       	mov    0x1b094,%eax
			223b: R_386_RELATIVE	*ABS*
    223f:	83 f8 03             	cmp    $0x3,%eax
    2242:	75 67                	jne    22ab <_ZL26__cudaRegisterLinkedBinaryPK19__fatBinC_Wrapper_tPFvPPvES2_+0xa5>
    2244:	a1 94 b0 01 00       	mov    0x1b094,%eax
			2245: R_386_RELATIVE	*ABS*
    2249:	c7 04 85 80 b0 01 00 	movl   $0x0,0x1b080(,%eax,4)
    2250:	00 00 00 00 
			224c: R_386_RELATIVE	*ABS*
    2254:	c7 04 24 f8 4b 00 00 	movl   $0x4bf8,(%esp)
			2257: R_386_RELATIVE	*ABS*
    225b:	e8 fc ff ff ff       	call   225c <_ZL26__cudaRegisterLinkedBinaryPK19__fatBinC_Wrapper_tPFvPPvES2_+0x56>
			225c: R_386_PC32	__cudaRegisterFatBinary
    2260:	a3 7c b0 01 00       	mov    %eax,0x1b07c
			2261: R_386_RELATIVE	*ABS*
    2265:	c7 04 24 46 21 00 00 	movl   $0x2146,(%esp)
			2268: R_386_RELATIVE	*ABS*
    226c:	e8 3f 00 00 00       	call   22b0 <atexit>
    2271:	c7 05 94 b0 01 00 00 	movl   $0x0,0x1b094
    2278:	00 00 00 
			2273: R_386_RELATIVE	*ABS*
    227b:	eb 24                	jmp    22a1 <_ZL26__cudaRegisterLinkedBinaryPK19__fatBinC_Wrapper_tPFvPPvES2_+0x9b>
    227d:	a1 94 b0 01 00       	mov    0x1b094,%eax
			227e: R_386_RELATIVE	*ABS*
    2282:	8b 04 85 98 b0 01 00 	mov    0x1b098(,%eax,4),%eax
			2285: R_386_RELATIVE	*ABS*
    2289:	8b 15 7c b0 01 00    	mov    0x1b07c,%edx
			228b: R_386_RELATIVE	*ABS*
    228f:	89 14 24             	mov    %edx,(%esp)
    2292:	ff d0                	call   *%eax
    2294:	a1 94 b0 01 00       	mov    0x1b094,%eax
			2295: R_386_RELATIVE	*ABS*
    2299:	83 c0 01             	add    $0x1,%eax
    229c:	a3 94 b0 01 00       	mov    %eax,0x1b094
			229d: R_386_RELATIVE	*ABS*
    22a1:	a1 94 b0 01 00       	mov    0x1b094,%eax
			22a2: R_386_RELATIVE	*ABS*
    22a6:	83 f8 02             	cmp    $0x2,%eax
    22a9:	7e d2                	jle    227d <_ZL26__cudaRegisterLinkedBinaryPK19__fatBinC_Wrapper_tPFvPPvES2_+0x77>
    22ab:	c9                   	leave  
    22ac:	c3                   	ret    
    22ad:	66 90                	xchg   %ax,%ax
    22af:	90                   	nop

000022b0 <atexit>:
    22b0:	53                   	push   %ebx
    22b1:	e8 da f1 ff ff       	call   1490 <__x86.get_pc_thunk.bx>
    22b6:	81 c3 4a 8d 01 00    	add    $0x18d4a,%ebx
    22bc:	83 ec 18             	sub    $0x18,%esp
    22bf:	8d 83 18 00 00 00    	lea    0x18(%ebx),%eax
    22c5:	85 c0                	test   %eax,%eax
    22c7:	74 1f                	je     22e8 <atexit+0x38>
    22c9:	8b 00                	mov    (%eax),%eax
    22cb:	89 44 24 08          	mov    %eax,0x8(%esp)
    22cf:	8b 44 24 20          	mov    0x20(%esp),%eax
    22d3:	c7 44 24 04 00 00 00 	movl   $0x0,0x4(%esp)
    22da:	00 
    22db:	89 04 24             	mov    %eax,(%esp)
    22de:	e8 8d f1 ff ff       	call   1470 <__cxa_atexit@plt>
    22e3:	83 c4 18             	add    $0x18,%esp
    22e6:	5b                   	pop    %ebx
    22e7:	c3                   	ret    
    22e8:	31 c0                	xor    %eax,%eax
    22ea:	eb df                	jmp    22cb <atexit+0x1b>

Desmontagem da seção .fini:

000022ec <_fini>:
    22ec:	53                   	push   %ebx
    22ed:	83 ec 08             	sub    $0x8,%esp
    22f0:	e8 9b f1 ff ff       	call   1490 <__x86.get_pc_thunk.bx>
    22f5:	81 c3 0b 8d 01 00    	add    $0x18d0b,%ebx
    22fb:	83 c4 08             	add    $0x8,%esp
    22fe:	5b                   	pop    %ebx
    22ff:	c3                   	ret    

Desmontagem da seção .rodata:

00002300 <.rodata>:
    2300:	25 73 20 69 6e       	and    $0x6e692073,%eax
    2305:	20 25 73 20 61 74    	and    %ah,0x74612073
    230b:	20 6c 69 6e          	and    %ch,0x6e(%ecx,%ebp,2)
    230f:	65 20 25 64 0a 00 53 	and    %ah,%gs:0x53000a64
    2316:	45                   	inc    %ebp
    2317:	54                   	push   %esp
    2318:	44                   	inc    %esp
    2319:	41                   	inc    %ecx
    231a:	54                   	push   %esp
    231b:	41                   	inc    %ecx
    231c:	20 61 6e             	and    %ah,0x6e(%ecx)
    231f:	74 65                	je     2386 <_fini+0x9a>
    2321:	73 00                	jae    2323 <_fini+0x37>
    2323:	70 72                	jo     2397 <fatbinData+0xf>
    2325:	6f                   	outsl  %ds:(%esi),(%dx)
    2326:	78 79                	js     23a1 <fatbinData+0x19>
    2328:	2e 63 70 70          	arpl   %si,%cs:0x70(%eax)
    232c:	00 53 45             	add    %dl,0x45(%ebx)
    232f:	54                   	push   %esp
    2330:	44                   	inc    %esp
    2331:	41                   	inc    %ecx
    2332:	54                   	push   %esp
    2333:	41                   	inc    %ecx
    2334:	20 4b 45             	and    %cl,0x45(%ebx)
    2337:	52                   	push   %edx
    2338:	4e                   	dec    %esi
    2339:	45                   	inc    %ebp
    233a:	4c                   	dec    %esp
    233b:	20 45 4e             	and    %al,0x4e(%ebp)
    233e:	54                   	push   %esp
    233f:	52                   	push   %edx
    2340:	4f                   	dec    %edi
    2341:	55                   	push   %ebp
    2342:	00 00                	add    %al,(%eax)
    2344:	5f                   	pop    %edi
    2345:	5a                   	pop    %edx
    2346:	32 32                	xor    (%edx),%dh
    2348:	64                   	fs
    2349:	66                   	data16
    234a:	73 5f                	jae    23ab <fatbinData+0x23>
    234c:	69 6e 74 65 72 6d 65 	imul   $0x656d7265,0x74(%esi),%ebp
    2353:	64 69 61 72 69 6f 5f 	imul   $0x635f6f69,%fs:0x72(%ecx),%esp
    235a:	63 
    235b:	75 64                	jne    23c1 <fatbinData+0x39>
    235d:	61                   	popa   
    235e:	69 50 69 53 5f 53 5f 	imul   $0x5f535f53,0x69(%eax),%edx
    2365:	69 69 69 69 69 53 5f 	imul   $0x5f536969,0x69(%ecx),%ebp
    236c:	53                   	push   %ebx
    236d:	5f                   	pop    %edi
    236e:	00 5f 5a             	add    %bl,0x5a(%edi)
    2371:	39 64 66 73          	cmp    %esp,0x73(%esi,%eiz,2)
    2375:	5f                   	pop    %edi
    2376:	66 69 6e 61 6c 69    	imul   $0x696c,0x61(%esi),%bp
    237c:	50                   	push   %eax
    237d:	69 53 5f 69 69 53 5f 	imul   $0x5f536969,0x5f(%ebx),%edx
    2384:	53                   	push   %ebx
    2385:	5f                   	pop    %edi
    2386:	69                   	.byte 0x69
	...

Desmontagem da seção __nv_relfatbin:

00002388 <fatbinData>:
    2388:	50                   	push   %eax
    2389:	ed                   	in     (%dx),%eax
    238a:	55                   	push   %ebp
    238b:	ba 01 00 10 00       	mov    $0x100001,%edx
    2390:	08 13                	or     %dl,(%ebx)
    2392:	00 00                	add    %al,(%eax)
    2394:	00 00                	add    %al,(%eax)
    2396:	00 00                	add    %al,(%eax)
    2398:	02 00                	add    (%eax),%al
    239a:	01 01                	add    %eax,(%ecx)
    239c:	50                   	push   %eax
    239d:	00 00                	add    %al,(%eax)
    239f:	00 18                	add    %bl,(%eax)
    23a1:	09 00                	or     %eax,(%eax)
    23a3:	00 00                	add    %al,(%eax)
    23a5:	00 00                	add    %al,(%eax)
    23a7:	00 11                	add    %dl,(%ecx)
    23a9:	09 00                	or     %eax,(%eax)
    23ab:	00 00                	add    %al,(%eax)
    23ad:	00 00                	add    %al,(%eax)
    23af:	00 07                	add    %al,(%edi)
    23b1:	00 01                	add    %al,(%ecx)
    23b3:	00 23                	add    %ah,(%ebx)
    23b5:	00 00                	add    %al,(%eax)
    23b7:	00 40 00             	add    %al,0x0(%eax)
    23ba:	00 00                	add    %al,(%eax)
    23bc:	09 00                	or     %eax,(%eax)
    23be:	00 00                	add    %al,(%eax)
    23c0:	14 20                	adc    $0x20,%al
	...
    23ce:	00 00                	add    %al,(%eax)
    23d0:	68 16 00 00 00       	push   $0x16
    23d5:	00 00                	add    %al,(%eax)
    23d7:	00 70 72             	add    %dh,0x72(%eax)
    23da:	6f                   	outsl  %ds:(%esi),(%dx)
    23db:	78 79                	js     2456 <fatbinData+0xce>
    23dd:	2e 63 70 70          	arpl   %si,%cs:0x70(%eax)
    23e1:	00 00                	add    %al,(%eax)
    23e3:	00 00                	add    %al,(%eax)
    23e5:	00 00                	add    %al,(%eax)
    23e7:	00 a2 7f 45 4c 46    	add    %ah,0x464c457f(%edx)
    23ed:	01 01                	add    %eax,(%ecx)
    23ef:	01 33                	add    %esi,(%ebx)
    23f1:	07                   	pop    %es
    23f2:	00 01                	add    %al,(%ecx)
    23f4:	00 66 01             	add    %ah,0x1(%esi)
    23f7:	00 be 00 41 00 01    	add    %bh,0x1004100(%esi)
    23fd:	00 f5                	add    %dh,%ch
    23ff:	11 c0                	adc    %eax,%eax
    2401:	13 00                	adc    (%eax),%eax
    2403:	00 23                	add    %ah,(%ebx)
    2405:	01 23                	add    %esp,(%ebx)
    2407:	00 34 00             	add    %dh,(%eax,%eax,1)
    240a:	20 00                	and    %al,(%eax)
    240c:	00 00                	add    %al,(%eax)
    240e:	28 00                	sub    %al,(%eax)
    2410:	11 00                	adc    %eax,(%eax)
    2412:	01 00                	add    %eax,(%eax)
    2414:	00 2e                	add    %ch,(%esi)
    2416:	73 68                	jae    2480 <fatbinData+0xf8>
    2418:	73 74                	jae    248e <fatbinData+0x106>
    241a:	72 74                	jb     2490 <fatbinData+0x108>
    241c:	61                   	popa   
    241d:	62 00                	bound  %eax,(%eax)
    241f:	2e 08 00             	or     %al,%cs:(%eax)
    2422:	21 79 6d             	and    %edi,0x6d(%ecx)
    2425:	08 00                	or     %al,(%eax)
    2427:	f7                   	(bad)  
    2428:	09 74 65 78          	or     %esi,0x78(%ebp,%eiz,2)
    242c:	74 2e                	je     245c <fatbinData+0xd4>
    242e:	63 75 64             	arpl   %si,0x64(%ebp)
    2431:	61                   	popa   
    2432:	4d                   	dec    %ebp
    2433:	61                   	popa   
    2434:	6c                   	insb   (%dx),%es:(%edi)
    2435:	6c                   	insb   (%dx),%es:(%edi)
    2436:	6f                   	outsl  %ds:(%esi),(%dx)
    2437:	63 00                	arpl   %ax,(%eax)
    2439:	2e 6e                	outsb  %cs:(%esi),(%dx)
    243b:	76 2e                	jbe    246b <fatbinData+0xe3>
    243d:	69 6e 66 6f 1a 00 f7 	imul   $0xf7001a6f,0x66(%esi),%ebp
    2444:	02 46 75             	add    0x75(%esi),%al
    2447:	6e                   	outsb  %ds:(%esi),(%dx)
    2448:	63 47 65             	arpl   %ax,0x65(%edi)
    244b:	74 41                	je     248e <fatbinData+0x106>
    244d:	74 74                	je     24c3 <fatbinData+0x13b>
    244f:	72 69                	jb     24ba <fatbinData+0x132>
    2451:	62 75 74             	bound  %esi,0x74(%ebp)
    2454:	65                   	gs
    2455:	73 1c                	jae    2473 <fatbinData+0xeb>
    2457:	00 68 44             	add    %ch,0x44(%eax)
    245a:	65                   	gs
    245b:	76 69                	jbe    24c6 <fatbinData+0x13e>
    245d:	63 65 1e             	arpl   %sp,0x1e(%ebp)
    2460:	00 07                	add    %al,(%edi)
    2462:	1d 00 32 47 65       	sbb    $0x65473200,%eax
    2467:	74 20                	je     2489 <fatbinData+0x101>
    2469:	00 07                	add    %al,(%edi)
    246b:	14 00                	adc    $0x0,%al
    246d:	f3 1a 4f 63          	repz sbb 0x63(%edi),%cl
    2471:	63 75 70             	arpl   %si,0x70(%ebp)
    2474:	61                   	popa   
    2475:	6e                   	outsb  %ds:(%esi),(%dx)
    2476:	63 79 4d             	arpl   %di,0x4d(%ecx)
    2479:	61                   	popa   
    247a:	78 41                	js     24bd <fatbinData+0x135>
    247c:	63 74 69 76          	arpl   %si,0x76(%ecx,%ebp,2)
    2480:	65                   	gs
    2481:	42                   	inc    %edx
    2482:	6c                   	insb   (%dx),%es:(%edi)
    2483:	6f                   	outsl  %ds:(%esi),(%dx)
    2484:	63 6b 73             	arpl   %bp,0x73(%ebx)
    2487:	50                   	push   %eax
    2488:	65                   	gs
    2489:	72 4d                	jb     24d8 <fatbinData+0x150>
    248b:	75 6c                	jne    24f9 <fatbinData+0x171>
    248d:	74 69                	je     24f8 <fatbinData+0x170>
    248f:	70 72                	jo     2503 <fatbinData+0x17b>
    2491:	6f                   	outsl  %ds:(%esi),(%dx)
    2492:	63 65 73             	arpl   %sp,0x73(%ebp)
    2495:	73 6f                	jae    2506 <fatbinData+0x17e>
    2497:	72 34                	jb     24cd <fatbinData+0x145>
    2499:	00 f0                	add    %dh,%al
    249b:	07                   	pop    %es
    249c:	5f                   	pop    %edi
    249d:	5a                   	pop    %edx
    249e:	32 32                	xor    (%edx),%dh
    24a0:	64                   	fs
    24a1:	66                   	data16
    24a2:	73 5f                	jae    2503 <fatbinData+0x17b>
    24a4:	69 6e 74 65 72 6d 65 	imul   $0x656d7265,0x74(%esi),%ebp
    24ab:	64 69 61 72 69 6f 5f 	imul   $0x4a5f6f69,%fs:0x72(%ecx),%esp
    24b2:	4a 
    24b3:	00 80 69 50 69 53    	add    %al,0x53695069(%eax)
    24b9:	5f                   	pop    %edi
    24ba:	53                   	push   %ebx
    24bb:	5f                   	pop    %edi
    24bc:	69 01 00 00 09 00    	imul   $0x90000,(%ecx),%eax
    24c2:	05 bb 00 0f 34       	add    $0x340f00bb,%eax
    24c7:	00 1d 6f 73 68 61    	add    %bl,0x6168736f
    24cd:	72 65                	jb     2534 <fatbinData+0x1ac>
    24cf:	64 36 00 1d 9f 63 6f 	fs add %bl,%ss:%fs:0x6e6f639f
    24d6:	6e 
    24d7:	73 74                	jae    254d <fatbinData+0x1c5>
    24d9:	61                   	popa   
    24da:	6e                   	outsb  %ds:(%esi),(%dx)
    24db:	74 32                	je     250f <fatbinData+0x187>
    24dd:	39 00                	cmp    %eax,(%eax)
    24df:	1a 3e                	sbb    (%esi),%bh
    24e1:	72 65                	jb     2548 <fatbinData+0x1c0>
    24e3:	6c                   	insb   (%dx),%es:(%edi)
    24e4:	d8 00                	fadds  (%eax)
    24e6:	0f 6e 00             	movd   (%eax),%mm0
    24e9:	18 1f                	sbb    %bl,(%edi)
    24eb:	30 39                	xor    %bh,(%ecx)
    24ed:	00 1e                	add    %bl,(%esi)
    24ef:	81 61 6c 6c 67 72 61 	andl   $0x6172676c,0x6c(%ecx)
    24f6:	70 68                	jo     2560 <fatbinData+0x1d8>
    24f8:	0e                   	push   %cs
    24f9:	00 9f 70 72 6f 74    	add    %bl,0x746f7270(%edi)
    24ff:	6f                   	outsl  %ds:(%esi),(%dx)
    2500:	74 79                	je     257b <fatbinData+0x1f3>
    2502:	70 65                	jo     2569 <fatbinData+0x1e1>
    2504:	14 02                	adc    $0x2,%al
    2506:	09 08                	or     %ecx,(%eax)
    2508:	0e                   	push   %cs
    2509:	02 0f                	add    (%edi),%cl
    250b:	1f                   	pop    %ds
    250c:	02 06                	add    (%esi),%al
    250e:	0f 19 02             	nopl   (%edx)
    2511:	0d 0e 1c 00 0f       	or     $0xf001c0e,%eax
    2516:	2f                   	das    
    2517:	02 0e                	add    (%esi),%cl
    2519:	0f 1d 00             	nopl   (%eax)
    251c:	00 0f                	add    %cl,(%edi)
    251e:	46                   	inc    %esi
    251f:	02 05 06 14 00 0f    	add    0xf001406,%al
    2525:	54                   	push   %esp
    2526:	02 1a                	add    (%edx),%bl
    2528:	0f 88 02 22 0f 71    	js     710f4730 <_end+0x710d9680>
    252e:	01 17                	add    %edx,(%edi)
    2530:	0f b3 02             	btr    %eax,(%edx)
    2533:	89 40 5f             	mov    %eax,0x5f(%eax)
    2536:	5a                   	pop    %edx
    2537:	31 34 0c             	xor    %esi,(%esp,%ecx,1)
    253a:	02 10                	add    (%eax),%dl
    253c:	5f                   	pop    %edi
    253d:	30 00                	xor    %al,(%eax)
    253f:	71 66                	jno    25a7 <fatbinData+0x21f>
    2541:	69 6e 61 6c 69 69 25 	imul   $0x2569696c,0x61(%esi),%ebp
    2548:	00 02                	add    %al,(%edx)
    254a:	20 00                	and    %al,(%eax)
    254c:	1f                   	pop    %ds
    254d:	69 d4 02 27 0f 2b    	imul   $0x2b0f2702,%esp,%edx
    2553:	00 17                	add    %dl,(%edi)
    2555:	02 60 00             	add    0x0(%eax),%ah
    2558:	5e                   	pop    %esi
    2559:	32 2e                	xor    (%esi),%ch
    255b:	30 2e                	xor    %ch,(%esi)
    255d:	34 0a                	xor    $0xa,%al
    255f:	03 0f                	add    (%edi),%ecx
    2561:	6b 00 43             	imul   $0x43,(%eax),%eax
    2564:	3f                   	aas    
    2565:	34 2e                	xor    $0x2e,%al
    2567:	38 40 03             	cmp    %al,0x3(%eax)
    256a:	27                   	daa    
    256b:	81 5f 70 61 72 61 6d 	sbbl   $0x6d617261,0x70(%edi)
    2572:	00 23                	add    %ah,(%ebx)
    2574:	12 00                	adc    (%eax),%al
    2576:	22 00                	and    (%eax),%al
    2578:	23 04 00             	and    (%eax,%eax,1),%eax
    257b:	03 06                	add    (%esi),%eax
    257d:	00 45 00             	add    %al,0x0(%ebp)
    2580:	23 76 69             	and    0x69(%esi),%esi
    2583:	01 00                	add    %eax,(%eax)
    2585:	0f 6a 03             	punpckhdq (%ebx),%mm0
    2588:	0b 0d 01 00 13 1b    	or     0x1b130001,%ecx
    258e:	08 00                	or     %al,(%eax)
    2590:	97                   	xchg   %eax,%edi
    2591:	80 00 00             	addb   $0x0,(%eax)
    2594:	00 22                	add    %ah,(%edx)
    2596:	00 0b                	add    %cl,(%ebx)
    2598:	00 26                	add    %ah,(%esi)
    259a:	1c 00                	sbb    $0x0,%al
    259c:	59                   	pop    %ecx
    259d:	03 00                	add    (%eax),%eax
    259f:	0b 00                	or     (%eax),%eax
    25a1:	40                   	inc    %eax
    25a2:	20 00                	and    %al,(%eax)
    25a4:	39 0c 00             	cmp    %ecx,(%eax,%eax,1)
    25a7:	56                   	push   %esi
    25a8:	20 00                	and    %al,(%eax)
    25aa:	39 0c 00             	cmp    %ecx,(%eax,%eax,1)
    25ad:	72 20                	jb     25cf <fatbinData+0x247>
    25af:	00 39                	add    %bh,(%ecx)
    25b1:	0d 00 89 20 00       	or     $0x208900,%eax
    25b6:	39 0d 00 a6 20 00    	cmp    %ecx,0x20a600
    25bc:	39 0e                	cmp    %ecx,(%esi)
    25be:	00 b4 20 00 39 0e 00 	add    %dh,0xe3900(%eax,%eiz,1)
    25c5:	c8 20 00 39          	enter  $0x20,$0x39
    25c9:	0f 00                	(bad)  
    25cb:	f6 20                	mulb   (%eax)
    25cd:	00 48 0f             	add    %cl,0xf(%eax)
    25d0:	00 55 01             	add    %dl,0x1(%ebp)
    25d3:	10 00                	adc    %al,(%eax)
    25d5:	48                   	dec    %eax
    25d6:	10 00                	adc    %al,(%eax)
    25d8:	11 02                	adc    %eax,(%edx)
    25da:	10 00                	adc    %al,(%eax)
    25dc:	33 09                	xor    (%ecx),%ecx
    25de:	00 4a 10             	add    %cl,0x10(%edx)
    25e1:	00 a2 04 00 00 00    	add    %ah,0x4(%edx)
    25e7:	0d 81 09 00 b5       	or     $0xb5000981,%eax
    25ec:	02 0c 00             	add    (%eax,%eax,1),%cl
    25ef:	04 10                	add    $0x10,%al
    25f1:	00 19                	add    %bl,(%ecx)
    25f3:	eb 30                	jmp    2625 <fatbinData+0x29d>
    25f5:	00 b1 0a 00 24 03    	add    %dh,0x324000a(%ecx)
    25fb:	00 00                	add    %al,(%eax)
    25fd:	40                   	inc    %eax
    25fe:	01 00                	add    %eax,(%eax)
    2600:	00 2c 20             	add    %ch,(%eax,%eiz,1)
    2603:	00 48 0a             	add    %cl,0xa(%eax)
    2606:	00 4e 03             	add    %cl,0x3(%esi)
    2609:	20 00                	and    %al,(%eax)
    260b:	39 06                	cmp    %eax,(%esi)
    260d:	00 5c 10 00          	add    %bl,0x0(%eax,%edx,1)
    2611:	33 07                	xor    (%edi),%eax
    2613:	00 2a                	add    %ch,(%edx)
    2615:	80 00 97             	addb   $0x97,(%eax)
    2618:	c0 06 00             	rolb   $0x0,(%esi)
    261b:	00 12                	add    %dl,(%edx)
    261d:	10 10                	adc    %dl,(%eax)
    261f:	00 f0                	add    %dh,%al
    2621:	90                   	nop
    2622:	00 10                	add    %dl,(%eax)
    2624:	12 68 00             	adc    0x0(%eax),%ch
    2627:	43                   	inc    %ebx
    2628:	23 08                	and    (%eax),%ecx
    262a:	00 13                	add    %dl,(%ebx)
    262c:	10 00                	adc    %al,(%eax)
    262e:	22 04 11             	and    (%ecx,%edx,1),%al
    2631:	0c 00                	or     $0x0,%al
    2633:	13 80 18 00 17 09    	adc    0x9170018(%eax),%eax
    2639:	18 00                	sbb    %al,(%eax)
    263b:	05 0c 00 47 23       	add    $0x2347000c,%eax
    2640:	08 00                	or     %al,(%eax)
    2642:	07                   	pop    %es
    2643:	18 00                	sbb    %al,(%eax)
    2645:	17                   	pop    %ss
    2646:	07                   	pop    %es
    2647:	18 00                	sbb    %al,(%eax)
    2649:	17                   	pop    %ss
    264a:	05 18 00 17 05       	add    $0x5170018,%eax
    264f:	18 00                	sbb    %al,(%eax)
    2651:	17                   	pop    %ss
    2652:	03 18                	add    (%eax),%ebx
    2654:	00 17                	add    %dl,(%edi)
    2656:	03 18                	add    (%eax),%ebx
    2658:	00 17                	add    %dl,(%edi)
    265a:	01 18                	add    %ebx,(%eax)
    265c:	00 05 0c 00 50 0a    	add    %al,0xa50000c
    2662:	08 00                	or     %al,(%eax)
    2664:	0f 00 e4             	verr   %sp
    2667:	00 91 2c 00 03 19    	add    %dl,0x1903002c(%ecx)
    266d:	2c 00                	sub    $0x0,%al
    266f:	04 17                	add    $0x17,%al
    2671:	0c 18                	or     $0x18,%al
    2673:	00 75 0a             	add    %dh,0xa(%ebp)
    2676:	00 28                	add    %ch,(%eax)
    2678:	00 00                	add    %al,(%eax)
    267a:	f0 11 10             	lock adc %edx,(%eax)
    267d:	00 39                	add    %bh,(%ecx)
    267f:	09 00                	or     %eax,(%eax)
    2681:	24 10                	and    $0x10,%al
    2683:	00 39                	add    %bh,(%ecx)
    2685:	08 00                	or     %al,(%eax)
    2687:	20 10                	and    %dl,(%eax)
    2689:	00 39                	add    %bh,(%ecx)
    268b:	07                   	pop    %es
    268c:	00 1c 10             	add    %bl,(%eax,%edx,1)
    268f:	00 39                	add    %bh,(%ecx)
    2691:	06                   	push   %es
    2692:	00 18                	add    %bl,(%eax)
    2694:	10 00                	adc    %al,(%eax)
    2696:	39 05 00 14 10 00    	cmp    %eax,0x101400
    269c:	39 04 00             	cmp    %eax,(%eax,%eax,1)
    269f:	10 10                	adc    %dl,(%eax)
    26a1:	00 00                	add    %al,(%eax)
    26a3:	1c 02                	sbb    $0x2,%al
    26a5:	08 10                	or     %dl,(%eax)
    26a7:	00 39                	add    %bh,(%ecx)
    26a9:	02 00                	add    (%eax),%al
    26ab:	08 10                	or     %dl,(%eax)
    26ad:	00 39                	add    %bh,(%ecx)
    26af:	01 00                	add    %eax,(%eax)
    26b1:	04 10                	add    $0x10,%al
    26b3:	00 01                	add    %al,(%ecx)
    26b5:	01 00                	add    %eax,(%eax)
    26b7:	00 10                	add    %dl,(%eax)
    26b9:	00 20                	add    %ah,(%eax)
    26bb:	0f 04                	(bad)  
    26bd:	5a                   	pop    %edx
    26be:	00 60 00             	add    %ah,0x0(%eax)
    26c1:	04 1e                	add    $0x1e,%al
    26c3:	04 00                	add    $0x0,%al
    26c5:	20 cc                	and    %cl,%ah
    26c7:	01 11                	add    %edx,(%ecx)
    26c9:	1d 5a 00 b2 00       	sbb    $0xb2005a,%eax
    26ce:	04 1c                	add    $0x1c,%al
    26d0:	08 00                	or     %al,(%eax)
    26d2:	98                   	cwtl   
    26d3:	05 00 00 68 06       	add    $0x6680000,%eax
    26d8:	2b 00                	sub    (%eax),%eax
    26da:	40                   	inc    %eax
    26db:	ff                   	(bad)  
    26dc:	ff                   	(bad)  
    26dd:	ff                   	(bad)  
    26de:	ff 6c 01 13          	ljmp   *0x13(%ecx,%eax,1)
    26e2:	14 3b                	adc    $0x3b,%al
    26e4:	00 40 fe             	add    %al,-0x2(%eax)
    26e7:	ff                   	(bad)  
    26e8:	ff                   	(bad)  
    26e9:	ff 08                	decl   (%eax)
    26eb:	00 40 fd             	add    %al,-0x3(%eax)
    26ee:	ff                   	(bad)  
    26ef:	ff                   	(bad)  
    26f0:	ff 0c 01             	decl   (%ecx,%eax,1)
    26f3:	20 3c 03             	and    %bh,(%ebx,%eax,1)
    26f6:	84 00                	test   %al,(%eax)
    26f8:	02 08                	add    (%eax),%cl
    26fa:	00 00                	add    %al,(%eax)
    26fc:	4c                   	dec    %esp
    26fd:	01 31                	add    %esi,(%ecx)
    26ff:	36 03 00             	add    %ss:(%eax),%eax
    2702:	6c                   	insb   (%dx),%es:(%edi)
    2703:	01 31                	add    %esi,(%ecx)
    2705:	32 03                	xor    (%ebx),%al
    2707:	00 8c 01 22 2b 03 3c 	add    %cl,0x3c032b22(%ecx,%eax,1)
    270e:	00 f3                	add    %dh,%bl
    2710:	0e                   	push   %cs
    2711:	41                   	inc    %ecx
    2712:	03 00                	add    (%eax),%eax
    2714:	00 58 06             	add    %bl,0x6(%eax)
    2717:	00 00                	add    %al,(%eax)
    2719:	0c 14                	or     $0x14,%al
    271b:	00 00                	add    %al,(%eax)
    271d:	08 06                	or     %al,(%esi)
    271f:	00 00                	add    %al,(%eax)
    2721:	19 0e                	sbb    %ecx,(%esi)
    2723:	00 00                	add    %al,(%eax)
    2725:	f0 05 00 00 19 0d    	lock add $0xd190000,%eax
    272b:	00 00                	add    %al,(%eax)
    272d:	a8 08                	test   $0x8,%al
    272f:	00 41 ab             	add    %al,-0x55(%ecx)
    2732:	aa                   	stos   %al,%es:(%edi)
    2733:	aa                   	stos   %al,%es:(%edi)
    2734:	aa                   	stos   %al,%es:(%edi)
    2735:	c3                   	ret    
    2736:	00 0f                	add    %cl,(%edi)
    2738:	01 00                	add    %eax,(%eax)
    273a:	ff                   	(bad)  
    273b:	7d b0                	jge    26ed <fatbinData+0x365>
    273d:	a0 b8 80 80 80       	mov    0x808080b8,%al
    2742:	80 00 08             	addb   $0x8,(%eax)
    2745:	12 c0                	adc    %al,%al
    2747:	1f                   	pop    %ds
    2748:	f3 02 20             	repz add (%eax),%ah
    274b:	74 3c                	je     2789 <fatbinData+0x401>
    274d:	b4 02                	mov    $0x2,%ah
    274f:	50                   	push   %eax
    2750:	00 00                	add    %al,(%eax)
    2752:	19 02                	sbb    %eax,(%edx)
    2754:	3c 08                	cmp    $0x8,%al
    2756:	00 2f                	add    %ch,(%edi)
    2758:	80 85 08 00 0d 8e 3c 	addb   $0x3c,-0x71f2fff8(%ebp)
    275f:	00 1c fc             	add    %bl,(%esp,%edi,8)
    2762:	ff                   	(bad)  
    2763:	7f 00                	jg     2765 <fatbinData+0x3dd>
    2765:	12 30                	adc    (%eax),%dh
    2767:	00 0f                	add    %cl,(%edi)
    2769:	08 00                	or     %al,(%eax)
    276b:	13 0f                	adc    (%edi),%ecx
    276d:	80 00 ff             	addb   $0xff,(%eax)
    2770:	ee                   	out    %al,(%dx)
    2771:	f0 15 bc 10 8c 10    	lock adc $0x108c10bc,%eax
    2777:	a0 a0 b0 08 06       	mov    0x608b0a0,%al
    277c:	00 9c 08 00 3c c0 64 	add    %bl,0x64c03c00(%eax,%ecx,1)
    2783:	02 00                	add    (%eax),%al
    2785:	9c                   	pushf  
    2786:	12 00                	adc    (%eax),%al
    2788:	00 40 86             	add    %al,-0x7a(%eax)
    278b:	05 04 1c 40 00       	add    $0x401c04,%eax
    2790:	00 88 c0 0e 00 9c    	add    %cl,-0x63fff140(%eax)
    2796:	10 10                	adc    %dl,(%eax)
    2798:	00 f0                	add    %dh,%al
    279a:	25 00 00 00 a8       	and    $0xa8000000,%eax
    279f:	02 00                	add    (%eax),%al
    27a1:	80 14 16 00          	adcb   $0x0,(%esi,%edx,1)
    27a5:	1c 05                	sbb    $0x5,%al
    27a7:	00 0c 08             	add    %cl,(%eax,%ecx,1)
    27aa:	51                   	push   %ecx
    27ab:	1e                   	push   %ds
    27ac:	14 1c                	adc    $0x1c,%al
    27ae:	2a 00                	sub    (%eax),%al
    27b0:	1c 68                	sbb    $0x68,%al
    27b2:	5b                   	pop    %ebx
    27b3:	10 88 a0 b0 00 a0    	adc    %cl,-0x5fff4f60(%eax)
    27b9:	b0 08                	mov    $0x8,%al
    27bb:	09 04 1c             	or     %eax,(%esp,%ebx,1)
    27be:	20 00                	and    %al,(%eax)
    27c0:	00 80 c0 3c 00 00    	add    %al,0x3cc0(%eax)
    27c6:	90                   	nop
    27c7:	02 00                	add    (%eax),%al
    27c9:	00 12                	add    %dl,(%edx)
    27cb:	12 00                	adc    (%eax),%al
    27cd:	1c 28                	sbb    $0x28,%al
    27cf:	50                   	push   %eax
    27d0:	00 dd                	add    %bl,%ch
    27d2:	1d 10 9c 00 00       	sbb    $0x9c10,%eax
    27d7:	1c 18                	sbb    $0x18,%al
    27d9:	b3 3c                	mov    $0x3c,%bl
    27db:	00 00                	add    %al,(%eax)
    27dd:	88 00                	mov    %al,(%eax)
    27df:	18 00                	sbb    %al,(%eax)
    27e1:	f0 07                	lock pop %es
    27e3:	48                   	dec    %eax
    27e4:	b3 10                	mov    $0x10,%bl
    27e6:	00 10                	add    %dl,(%eax)
    27e8:	a0 98 8c 80 08       	mov    0x8808c98,%al
    27ed:	12 00                	adc    (%eax),%al
    27ef:	9c                   	pushf  
    27f0:	7f 00                	jg     27f2 <fatbinData+0x46a>
    27f2:	3c c0                	cmp    $0xc0,%al
    27f4:	e4 3c                	in     $0x3c,%al
    27f6:	00 20                	add    %ah,(%eax)
    27f8:	34 28                	xor    $0x28,%al
    27fa:	00 13                	add    %dl,(%ebx)
    27fc:	1a 28                	sbb    (%eax),%ch
    27fe:	00 f0                	add    %dh,%al
    2800:	02 26                	add    (%esi),%ah
    2802:	c0 9f ff ff ff 7f 74 	rcrb   $0x74,0x7fffffff(%edi)
    2809:	21 18                	and    %ebx,(%eax)
    280b:	9c                   	pushf  
    280c:	ff                   	(bad)  
    280d:	ff 03                	incl   (%ebx)
    280f:	80 c8 1a             	or     $0x1a,%al
    2812:	38 00                	cmp    %al,(%eax)
    2814:	70 08                	jo     281e <fatbinData+0x496>
    2816:	c0 e0 1e             	shl    $0x1e,%al
    2819:	10 1c 01             	adc    %bl,(%ecx,%eax,1)
    281c:	08 00                	or     %al,(%eax)
    281e:	90                   	nop
    281f:	a0 80 b8 b8 b8       	mov    0xb8b8b880,%al
    2824:	10 b8 08 11 10 00    	adc    %bh,0x101108(%eax)
    282a:	d0 00                	rolb   (%eax)
    282c:	80 c0 1e             	add    $0x1e,%al
    282f:	10 1c 04             	adc    %bl,(%esp,%eax,1)
    2832:	00 1c 18             	add    %bl,(%eax,%ebx,1)
    2835:	db 26                	(bad)  (%esi)
    2837:	18 e0                	sbb    %ah,%al
    2839:	00 42 a0             	add    %al,-0x60(%edx)
    283c:	7a fe                	jp     283c <fatbinData+0x4b4>
    283e:	1f                   	pop    %ds
    283f:	08 00                	or     %al,(%eax)
    2841:	43                   	inc    %ebx
    2842:	26 18 1c 02          	sbb    %bl,%es:(%edx,%eax,1)
    2846:	10 00                	adc    %al,(%eax)
    2848:	01 08                	add    %ecx,(%eax)
    284a:	00 40 3c             	add    %al,0x3c(%eax)
    284d:	00 00                	add    %al,(%eax)
    284f:	d8 38                	fdivrs (%eax)
    2851:	01 31                	add    %esi,(%ecx)
    2853:	b0 88                	mov    $0x88,%al
    2855:	10 80 01 84 1e 10    	adc    %al,0x101e8401(%eax)
    285b:	1c 28                	sbb    $0x28,%al
    285d:	00 1c 18             	add    %bl,(%eax,%ebx,1)
    2860:	5b                   	pop    %ebx
    2861:	80 00 13             	addb   $0x13,(%eax)
    2864:	22 78 00             	and    0x0(%eax),%bh
    2867:	0f 40 01             	cmovo  (%ecx),%eax
    286a:	0d 40 8c 10 a0       	or     $0xa0108c40,%eax
    286f:	80 80 00 0c 98 00 10 	addb   $0x10,0x980c00(%eax)
    2876:	11 10                	adc    %edx,(%eax)
    2878:	00 02                	add    %al,(%edx)
    287a:	90                   	nop
    287b:	00 01                	add    %al,(%ecx)
    287d:	58                   	pop    %eax
    287e:	00 1b                	add    %bl,(%ebx)
    2880:	22 90 00 40 3c 00    	and    0x3c4000(%eax),%dl
    2886:	00 e0                	add    %ah,%al
    2888:	80 00 50             	addb   $0x50,(%eax)
    288b:	10 a0 10 b8 10 00    	adc    %ah,0x10b810(%eax)
    2891:	02 30                	add    (%eax),%dh
    2893:	00 9c 2b f0 00 30 1a 	add    %bl,0x1a3000f0(%ebx,%ebp,1)
    289a:	c0 9f 00 02 32 74 fe 	rcrb   $0xfe,0x74320200(%edi)
    28a1:	07                   	pop    %es
    28a2:	28 00                	sub    %al,(%eax)
    28a4:	10 1d 50 00 34 1c    	adc    %bl,0x1c340050
    28aa:	18 b3 20 01 25 1a    	sbb    %dh,0x1a250120(%ebx)
    28b0:	08 40 00             	or     %al,0x0(%eax)
    28b3:	00 87 08 00 40 00    	add    %al,0x400008(%edi)
    28b9:	64 a0 10 80 ac 08    	mov    %fs:0x8ac8010,%al
    28bf:	1e                   	push   %ds
    28c0:	40                   	inc    %eax
    28c1:	00 93 14 9c 2b 00    	add    %dl,0x2b9c14(%ebx)
    28c7:	18 c0                	sbb    %al,%al
    28c9:	61                   	popa   
    28ca:	31 1c 30             	xor    %ebx,(%eax,%esi,1)
    28cd:	01 b0 18 1c 29 00    	add    %esi,0x291c18(%eax)
    28d3:	08 c0                	or     %al,%al
    28d5:	60                   	pusha  
    28d6:	1e                   	push   %ds
    28d7:	00 9c 00 40 00 22 1d 	add    %bl,0x1d220040(%eax,%eax,1)
    28de:	30 78 01             	xor    %bh,0x1(%eax)
    28e1:	13 22                	adc    (%edx),%esp
    28e3:	68 00 22 10 00       	push   $0x102200
    28e8:	00 01                	add    %al,(%ecx)
    28ea:	11 19                	adc    %ebx,(%ecx)
    28ec:	20 01                	and    %al,(%ecx)
    28ee:	00 c0                	add    %al,%al
    28f0:	01 20                	add    %esp,(%eax)
    28f2:	20 50 58             	and    %dl,0x58(%eax)
    28f5:	00 13                	add    %dl,(%ebx)
    28f7:	36 20 00             	and    %al,%ss:(%eax)
    28fa:	0f 00 01             	sldt   (%ecx)
    28fd:	0f 71                	(bad)  
    28ff:	cc                   	int3   
    2900:	80 b4 10 8c 08 24 e0 	xorb   $0x0,-0x1fdbf774(%eax,%edx,1)
    2907:	00 
    2908:	31 00                	xor    %eax,(%eax)
    290a:	c4 2c 48             	les    (%eax,%ecx,2),%ebp
    290d:	00 42 00             	add    %al,0x0(%edx)
    2910:	c4 21                	les    (%ecx),%esp
    2912:	20 90 01 22 26 1c    	and    %dl,0x1c262201(%eax)
    2918:	70 01                	jo     291b <fatbinData+0x593>
    291a:	22 2a                	and    (%edx),%ch
    291c:	24 18                	and    $0x18,%al
    291e:	01 40 1e             	add    %eax,0x1e(%eax)
    2921:	20 1c 06             	and    %bl,(%esi,%eax,1)
    2924:	a0 01 40 1d 1c       	mov    0x1c1d4001,%al
    2929:	1c 04                	sbb    $0x4,%al
    292b:	20 00                	and    %al,(%eax)
    292d:	20 80 10 bf 01 42    	and    %al,0x4201bf10(%eax)
    2933:	b0 08                	mov    $0x8,%al
    2935:	26                   	es
    2936:	2c 20                	sub    $0x20,%al
    2938:	00 22                	add    %ah,(%edx)
    293a:	36                   	ss
    293b:	28 e0                	sub    %ah,%al
    293d:	00 22                	add    %ah,(%edx)
    293f:	19 18                	sbb    %ebx,(%eax)
    2941:	20 00                	and    %al,(%eax)
    2943:	22 2e                	and    (%esi),%ch
    2945:	1c 10                	sbb    $0x10,%al
    2947:	00 25 36 24 f8 00    	add    %ah,0xf82436
    294d:	10 c4                	adc    %al,%ah
    294f:	38 01                	cmp    %al,(%ecx)
    2951:	40                   	inc    %eax
    2952:	1e                   	push   %ds
    2953:	20 9c 2b 58 01 b0 88 	and    %bl,-0x774ffea8(%ebx,%ebp,1)
    295a:	00 10                	add    %dl,(%eax)
    295c:	a0 10 94 a0 08       	mov    0x8a09410,%al
    2961:	3c 00                	cmp    $0x0,%al
    2963:	20 0f                	and    %cl,(%edi)
    2965:	09 23                	or     %esp,(%ebx)
    2967:	12 2e                	adc    (%esi),%ch
    2969:	b8 00 04 90 00       	mov    $0x900400,%eax
    296e:	22 21                	and    (%ecx),%ah
    2970:	20 88 01 22 1d 1c    	and    %cl,0x1c1d2201(%eax)
    2976:	e0 00                	loopne 2978 <fatbinData+0x5f0>
    2978:	04 38                	add    $0x38,%al
    297a:	00 04 f0             	add    %al,(%eax,%esi,8)
    297d:	00 84 10 b8 10 b8 10 	add    %al,0x10b810b8(%eax,%edx,1)
    2984:	bc 80 08 a0 00       	mov    $0xa00880,%esp
    2989:	13 26                	adc    (%esi),%esp
    298b:	70 00                	jo     298d <fatbinData+0x605>
    298d:	13 2e                	adc    (%esi),%ebp
    298f:	88 00                	mov    %al,(%eax)
    2991:	04 28                	add    $0x28,%al
    2993:	02 31                	add    (%ecx),%dh
    2995:	16                   	push   %ss
    2996:	14 1c                	adc    $0x1c,%al
    2998:	58                   	pop    %eax
    2999:	01 13                	add    %edx,(%ebx)
    299b:	1a 68 01             	sbb    0x1(%eax),%ch
    299e:	22 2a                	and    (%edx),%ch
    29a0:	18 f0                	sbb    %dh,%al
    29a2:	01 a1 9c dc b0 a0    	add    %esp,-0x5f4f2364(%ecx)
    29a8:	00 10                	add    %dl,(%eax)
    29aa:	a0 08 00 00 67       	mov    0x67000008,%al
    29af:	0a 21                	or     (%ecx),%ah
    29b1:	15 1e 38 00 30       	adc    $0x3000381e,%eax
    29b6:	20 7a 1d             	and    %bh,0x1d(%edx)
    29b9:	80 01 61             	addb   $0x61,(%ecx)
    29bc:	1f                   	pop    %ds
    29bd:	28 bb 22 1c 20 58    	sub    %bh,0x58201c22(%ebx)
    29c3:	00 32                	add    %dh,(%edx)
    29c5:	fe                   	(bad)  
    29c6:	23 20                	and    (%eax),%esp
    29c8:	88 02                	mov    %al,(%edx)
    29ca:	30 00                	xor    %al,(%eax)
    29cc:	9c                   	pushf  
    29cd:	03 88 01 13 22 08    	add    0x8221301(%eax),%ecx
    29d3:	00 a2 10 a0 b0 88    	add    %ah,-0x774f5ff0(%edx)
    29d9:	dc b0 00 08 1d 1c    	fdivl  0x1c1d0800(%eax)
    29df:	a8 00                	test   $0x0,%al
    29e1:	14 26                	adc    $0x26,%al
    29e3:	28 01                	sub    %al,(%ecx)
    29e5:	10 1c 38             	adc    %bl,(%eax,%edi,1)
    29e8:	02 32                	add    (%edx),%dh
    29ea:	68 5b 3c 27 06       	push   $0x6273c5b
    29ef:	30 1a                	xor    %bl,(%edx)
    29f1:	2e                   	cs
    29f2:	24 b0                	and    $0xb0,%al
    29f4:	00 b1 20 7a 1e 2c    	add    %dh,0x2c1e7a20(%ecx)
    29fa:	9c                   	pushf  
    29fb:	7f 00                	jg     29fd <fatbinData+0x675>
    29fd:	1c 58                	sbb    $0x58,%al
    29ff:	db 3c 90             	fstpt  (%eax,%edx,4)
    2a02:	10 80 00 1a b8 10    	adc    %al,0x10b81a00(%eax)
    2a08:	a0 10 90 84 00       	mov    0x849010,%al
    2a0d:	01 20                	add    %esp,(%eax)
    2a0f:	1c d0                	sbb    $0xd0,%al
    2a11:	a8 00                	test   $0x0,%al
    2a13:	04 f0                	add    $0xf0,%al
    2a15:	00 23                	add    %ah,(%ebx)
    2a17:	1e                   	push   %ds
    2a18:	1c 78                	sbb    $0x78,%al
    2a1a:	02 03                	add    (%ebx),%al
    2a1c:	c8 00 c8 00          	enter  $0xc800,$0x0
    2a20:	00 00                	add    %al,(%eax)
    2a22:	b8 00 00 80 14       	mov    $0x14800000,%eax
    2a27:	3c 00                	cmp    $0x0,%al
    2a29:	00 10                	add    %dl,(%eax)
    2a2b:	e0 02                	loopne 2a2f <fatbinData+0x6a7>
    2a2d:	10 10                	adc    %dl,(%eax)
    2a2f:	41                   	inc    %ecx
    2a30:	00 34 b0             	add    %dh,(%eax,%esi,4)
    2a33:	88 08                	mov    %cl,(%eax)
    2a35:	28 00                	sub    %al,(%eax)
    2a37:	31 1d 18 dc 38 02    	xor    %ebx,0x238dc18
    2a3d:	22 1d 18 48 00 04    	and    0x4004818,%bl
    2a43:	28 02                	sub    %al,(%edx)
    2a45:	a2 1e 1c 1c 2c       	mov    %al,0x2c1c1c1e
    2a4a:	00 1c 58             	add    %bl,(%eax,%ebx,2)
    2a4d:	5b                   	pop    %ebx
    2a4e:	22 24 d0             	and    (%eax,%edx,8),%ah
    2a51:	01 32                	add    %esi,(%edx)
    2a53:	02 3c 40             	add    (%eax,%eax,2),%bh
    2a56:	c0 04 10 b0          	rolb   $0xb0,(%eax,%edx,1)
    2a5a:	81 01 61 a0 08 1e    	addl   $0x1e08a061,(%ecx)
    2a60:	00 1c 2c             	add    %bl,(%esp,%ebp,1)
    2a63:	d8 03                	fadds  (%ebx)
    2a65:	15 1c f0 03 11       	adc    $0x1103f01c,%eax
    2a6a:	78 68                	js     2ad4 <fatbinData+0x74c>
    2a6c:	00 03                	add    %al,(%ebx)
    2a6e:	18 00                	sbb    %al,(%eax)
    2a70:	21 1e                	and    %ebx,(%esi)
    2a72:	14 70                	adc    $0x70,%al
    2a74:	01 32                	add    %esi,(%edx)
    2a76:	e0 1d                	loopne 2a95 <fatbinData+0x70d>
    2a78:	20 80 02 01 50 00    	and    %al,0x500102(%eax)
    2a7e:	c3                   	ret    
    2a7f:	18 c0                	sbb    %al,%al
    2a81:	61                   	popa   
    2a82:	10 8c ac a0 98 a0 80 	adc    %cl,-0x7f5f6760(%esp,%ebp,4)
    2a89:	08 22                	or     %ah,(%edx)
    2a8b:	e0 02                	loopne 2a8f <fatbinData+0x707>
    2a8d:	31 1e                	xor    %ebx,(%esi)
    2a8f:	1c 9c                	sbb    $0x9c,%al
    2a91:	b0 02                	mov    $0x2,%al
    2a93:	04 d0                	add    $0xd0,%al
    2a95:	01 13                	add    %edx,(%ebx)
    2a97:	26                   	es
    2a98:	40                   	inc    %eax
    2a99:	00 22                	add    %ah,(%edx)
    2a9b:	2d 24 d0 02 22       	sub    $0x2202d024,%eax
    2aa0:	2a 20                	sub    (%eax),%ah
    2aa2:	78 01                	js     2aa5 <fatbinData+0x71d>
    2aa4:	11 32                	adc    %esi,(%edx)
    2aa6:	b0 00                	mov    $0x0,%al
    2aa8:	52                   	push   %edx
    2aa9:	28 7a 10             	sub    %bh,0x10(%edx)
    2aac:	a0 b4 40 02 30       	mov    0x300240b4,%al
    2ab1:	20 9c 03 18 00 04 78 	and    %bl,0x78040018(%ebx,%eax,1)
    2ab8:	02 40 1e             	add    0x1e(%eax),%al
    2abb:	20 9c 05 68 02 11 30 	and    %bl,0x30110268(%ebp,%eax,1)
    2ac2:	38 02                	cmp    %al,(%edx)
    2ac4:	31 00                	xor    %eax,(%eax)
    2ac6:	e4 34                	in     $0x34,%al
    2ac8:	b8 00 62 00 e4       	mov    $0xe4006200,%eax
    2acd:	3c 00                	cmp    $0x0,%al
    2acf:	00 dc                	add    %bl,%ah
    2ad1:	40                   	inc    %eax
    2ad2:	02 21                	add    (%ecx),%ah
    2ad4:	1c 2c                	sbb    $0x2c,%al
    2ad6:	40                   	inc    %eax
    2ad7:	02 60 a0             	add    -0x60(%eax),%ah
    2ada:	10 80 a0 b4 80 40    	adc    %al,0x4080b4a0(%eax)
    2ae0:	02 11                	add    (%ecx),%dl
    2ae2:	20 70 00             	and    %dh,0x0(%eax)
    2ae5:	03 60 00             	add    0x0(%eax),%esp
    2ae8:	13 2a                	adc    (%edx),%ebp
    2aea:	50                   	push   %eax
    2aeb:	00 22                	add    %ah,(%edx)
    2aed:	26                   	es
    2aee:	24 d0                	and    $0xd0,%al
    2af0:	01 05 58 01 03 38    	add    %eax,0x38030158
    2af6:	00 22                	add    %ah,(%edx)
    2af8:	24 28                	and    $0x28,%al
    2afa:	58                   	pop    %eax
    2afb:	00 84 b8 80 00 10 b0 	add    %al,-0x4fefff80(%eax,%edi,4)
    2b02:	b8 00 08 d0 03       	mov    $0x3d00800,%eax
    2b07:	05 f8 03 00 86       	add    $0x860003f8,%eax
    2b0c:	0b 02                	or     (%edx),%eax
    2b0e:	d0 00                	rolb   (%eax)
    2b10:	10 2b                	adc    %ch,(%ebx)
    2b12:	c8 01 13 1a          	enter  $0x1301,$0x1a
    2b16:	f0 01 00             	lock add %eax,(%eax)
    2b19:	28 00                	sub    %al,(%eax)
    2b1b:	11 fe                	adc    %edi,%esi
    2b1d:	b0 05                	mov    $0x5,%al
    2b1f:	11 5c 40 01          	adc    %ebx,0x1(%eax,%eax,2)
    2b23:	90                   	nop
    2b24:	c4 b0 b8 a0 10 a0    	les    -0x5fef5f48(%eax),%esi
    2b2a:	80 08 02             	orb    $0x2,(%eax)
    2b2d:	f8                   	clc    
    2b2e:	05 54 dc 40 85       	add    $0x8540dc54,%eax
    2b33:	1e                   	push   %ds
    2b34:	0c e0                	or     $0xe0,%al
    2b36:	01 01                	add    %eax,(%ecx)
    2b38:	01 00                	add    %eax,(%eax)
    2b3a:	11 18                	adc    %ebx,(%eax)
    2b3c:	70 05                	jo     2b43 <fatbinData+0x7bb>
    2b3e:	b4 3c                	mov    $0x3c,%ah
    2b40:	c0 64 0e 14 1c       	shlb   $0x1c,0x14(%esi,%ecx,1)
    2b45:	00 00                	add    %al,(%eax)
    2b47:	04 c0                	add    $0xc0,%al
    2b49:	61                   	popa   
    2b4a:	18 05 e0 09 0c 9c    	sbb    %al,0x9c0c09e0
    2b50:	03 00                	add    (%eax),%eax
    2b52:	fc                   	cld    
    2b53:	c3                   	ret    
    2b54:	c7 80 10 98 10 8c 90 	movl   $0x11018090,-0x73ef67f0(%eax)
    2b5b:	80 01 11 
    2b5e:	9c                   	pushf  
    2b5f:	18 00                	sbb    %al,(%eax)
    2b61:	13 12                	adc    (%edx),%edx
    2b63:	a8 02                	test   $0x2,%al
    2b65:	40                   	inc    %eax
    2b66:	26 00 9c 2a 10 00 93 	add    %bl,%es:0xd930010(%edx,%ebp,1)
    2b6d:	0d 
    2b6e:	08 1c 60             	or     %bl,(%eax,%eiz,2)
    2b71:	00 14 88             	add    %dl,(%eax,%ecx,4)
    2b74:	a1 2a 48 01 22       	mov    0x2201482a,%eax
    2b79:	12 10                	adc    (%eax),%dl
    2b7b:	48                   	dec    %eax
    2b7c:	00 f1                	add    %dh,%cl
    2b7e:	01 09                	add    %ecx,(%ecx)
    2b80:	fc                   	cld    
    2b81:	9f                   	lahf   
    2b82:	00 00                	add    %al,(%eax)
    2b84:	0c 28                	or     $0x28,%al
    2b86:	b2 8c                	mov    $0x8c,%dl
    2b88:	90                   	nop
    2b89:	a0 8c 90 10 8c       	mov    0x8c10908c,%al
    2b8e:	08 18                	or     %bl,(%eax)
    2b90:	00 52 08             	add    %dl,0x8(%edx)
    2b93:	00 52 0a             	add    %dl,0xa(%edx)
    2b96:	00 98 01 f0 05 0d    	add    %bl,0xd05f001(%eax)
    2b9c:	10 1c 60             	adc    %bl,(%eax,%eiz,2)
    2b9f:	00 18                	add    %bl,(%eax)
    2ba1:	c0 c1 16             	rol    $0x16,%cl
    2ba4:	08 9c 01 00 18 c0 e1 	or     %bl,-0x1e3fe800(%ecx,%eax,1)
    2bab:	36                   	ss
    2bac:	0c 1c                	or     $0x1c,%al
    2bae:	00 08                	add    %cl,(%eax)
    2bb0:	00 22                	add    %ah,(%edx)
    2bb2:	22 14 a0             	and    (%eax,%eiz,4),%dl
    2bb5:	01 40 16             	add    %eax,0x16(%eax)
    2bb8:	c0 1f 60             	rcrb   $0x60,(%edi)
    2bbb:	18 02                	sbb    %al,(%edx)
    2bbd:	c0 8c bc b8 10 b8 80 	rorb   $0x0,-0x7f47ef48(%esp,%edi,4)
    2bc4:	00 
    2bc5:	08 2e                	or     %ch,(%esi)
    2bc7:	34 9c                	xor    $0x9c,%al
    2bc9:	2c 18                	sub    $0x18,%al
    2bcb:	00 40 32             	add    %al,0x32(%eax)
    2bce:	34 1c                	xor    $0x1c,%al
    2bd0:	2d 08 00 03 cd       	sub    $0xcd030008,%eax
    2bd5:	0b 34 11             	or     (%ecx,%edx,1),%esi
    2bd8:	fe 03                	incb   (%ebx)
    2bda:	d8 05 01 30 01 1f    	fadds  0x1f013001
    2be0:	18 c0                	sbb    %al,%al
    2be2:	06                   	push   %es
    2be3:	3d 0f 68 09 15       	cmp    $0x1509680f,%eax
    2be8:	00 8f 00 17 03 10    	add    %cl,0x10031700(%edi)
    2bee:	00 00                	add    %al,(%eax)
    2bf0:	e5 05                	in     $0x5,%eax
    2bf2:	2a 14 02             	sub    (%edx,%eax,1),%dl
    2bf5:	20 00                	and    %al,(%eax)
    2bf7:	00 01                	add    %al,(%ecx)
    2bf9:	00 1b                	add    %bl,(%ebx)
    2bfb:	0b 28                	or     (%eax),%ebp
    2bfd:	00 6e 48             	add    %ch,0x48(%esi)
    2c00:	02 00                	add    (%eax),%al
    2c02:	00 6a 03             	add    %ch,0x3(%edx)
    2c05:	28 00                	sub    %al,(%eax)
    2c07:	1b 13                	sbb    (%ebx),%edx
    2c09:	4d                   	dec    %ebp
    2c0a:	0b 62 b4             	or     -0x4c(%edx),%esp
    2c0d:	05 00 00 50 01       	add    $0x1500000,%eax
    2c12:	14 00                	adc    $0x0,%al
    2c14:	13 12                	adc    (%edx),%edx
    2c16:	bc 0d 22 10 00       	mov    $0x10220d,%esp
    2c1b:	a4                   	movsb  %ds:(%esi),%es:(%edi)
    2c1c:	0d 44 00 00 00       	or     $0x44,%eax
    2c21:	70 28                	jo     2c4b <fatbinData+0x8c3>
    2c23:	00 57 04             	add    %dl,0x4(%edi)
    2c26:	07                   	pop    %es
    2c27:	00 00                	add    %al,(%eax)
    2c29:	90                   	nop
    2c2a:	64 00 13             	add    %dl,%fs:(%ebx)
    2c2d:	04 08                	add    $0x8,%al
    2c2f:	00 1b                	add    %bl,(%ebx)
    2c31:	e7 28                	out    %eax,$0x28
    2c33:	00 53 94             	add    %dl,-0x6c(%ebx)
    2c36:	07                   	pop    %es
    2c37:	00 00                	add    %al,(%eax)
    2c39:	e4 28                	in     $0x28,%al
    2c3b:	00 17                	add    %dl,(%edi)
    2c3d:	10 28                	adc    %ch,(%eax)
    2c3f:	00 21                	add    %ah,(%ecx)
    2c41:	f8                   	clc    
    2c42:	01 84 00 05 28 00 5b 	add    %eax,0x5b002805(%eax,%eax,1)
    2c49:	78 08                	js     2c53 <fatbinData+0x8cb>
    2c4b:	00 00                	add    %al,(%eax)
    2c4d:	20 50 00             	and    %dl,0x0(%eax)
    2c50:	00 8d 04 21 06 02    	add    %cl,0x2062104(%ebp)
    2c56:	8c 00                	mov    %es,(%eax)
    2c58:	05 28 00 5f 98       	add    $0x985f0028,%eax
    2c5d:	08 00                	or     %al,(%eax)
    2c5f:	00 30                	add    %dh,(%eax)
    2c61:	28 00                	sub    %al,(%eax)
    2c63:	00 22                	add    %ah,(%edx)
    2c65:	8a 01                	mov    (%ecx),%al
    2c67:	4c                   	dec    %esp
    2c68:	0c 04                	or     $0x4,%al
    2c6a:	c8 00 17 c8          	enter  $0x1700,$0xc8
    2c6e:	50                   	push   %eax
    2c6f:	00 17                	add    %dl,(%edi)
    2c71:	10 28                	adc    %ch,(%eax)
    2c73:	00 12                	add    %dl,(%edx)
    2c75:	51                   	push   %ecx
    2c76:	78 00                	js     2c78 <fatbinData+0x8f0>
    2c78:	05 f4 00 22 e8       	add    $0xe82200f4,%eax
    2c7d:	08 18                	or     %bl,(%eax)
    2c7f:	00 1b                	add    %bl,(%ebx)
    2c81:	00 a0 00 1b bf 28    	add    %ah,0x28bf1b00(%eax)
    2c87:	00 6e f0             	add    %ch,-0x10(%esi)
    2c8a:	08 00                	or     %al,(%eax)
    2c8c:	00 6c 01 28          	add    %ch,0x28(%ecx,%eax,1)
    2c90:	00 13                	add    %dl,(%ebx)
    2c92:	1b 4c 01 14          	sbb    0x14(%ecx,%eax,1),%ecx
    2c96:	06                   	push   %es
    2c97:	3c 0f                	cmp    $0xf,%al
    2c99:	12 0a                	adc    (%edx),%cl
    2c9b:	74 0e                	je     2cab <fatbinData+0x923>
    2c9d:	12 03                	adc    (%ebx),%al
    2c9f:	18 00                	sbb    %al,(%eax)
    2ca1:	14 06                	adc    $0x6,%al
    2ca3:	b4 0f                	mov    $0xf,%ah
    2ca5:	1b 35 28 00 26 00    	sbb    0x260028,%esi
    2cab:	0b 28                	or     (%eax),%ebp
    2cad:	00 17                	add    %dl,(%edi)
    2caf:	03 28                	add    (%eax),%ebp
    2cb1:	00 1c 51             	add    %bl,(%ecx,%edx,2)
    2cb4:	50                   	push   %eax
    2cb5:	00 07                	add    %al,(%edi)
    2cb7:	28 00                	sub    %al,(%eax)
    2cb9:	44                   	inc    %esp
    2cba:	05 00 00 07 28       	add    $0x28070000,%eax
    2cbf:	00 1c 6e             	add    %bl,(%esi,%ebp,2)
    2cc2:	50                   	push   %eax
    2cc3:	00 16                	add    %dl,(%esi)
    2cc5:	0c 28                	or     $0x28,%al
    2cc7:	00 44 07 00          	add    %al,0x0(%edi,%eax,1)
    2ccb:	00 05 28 00 1c 82    	add    %al,0x821c0028
    2cd1:	50                   	push   %eax
    2cd2:	00 07                	add    %al,(%edi)
    2cd4:	28 00                	sub    %al,(%eax)
    2cd6:	44                   	inc    %esp
    2cd7:	09 00                	or     %eax,(%eax)
    2cd9:	00 08                	add    %cl,(%eax)
    2cdb:	28 00                	sub    %al,(%eax)
    2cdd:	15 b6 28 00 12       	adc    $0x120028b6,%eax
    2ce2:	10 11                	adc    %dl,(%ecx)
    2ce4:	00 12                	add    %dl,(%edx)
    2ce6:	0d 68 0f 00 28       	or     $0x28000f68,%eax
    2ceb:	00 c0                	add    %al,%al
    2ced:	13 00                	adc    (%eax),%eax
    2cef:	00 0e                	add    %cl,(%esi)
    2cf1:	40                   	inc    %eax
	...
    2cfe:	00 00                	add    %al,(%eax)
    2d00:	01 00                	add    %eax,(%eax)
    2d02:	01 01                	add    %eax,(%ecx)
    2d04:	70 00                	jo     2d06 <fatbinData+0x97e>
    2d06:	00 00                	add    %al,(%eax)
    2d08:	30 09                	xor    %cl,(%ecx)
    2d0a:	00 00                	add    %al,(%eax)
    2d0c:	00 00                	add    %al,(%eax)
    2d0e:	00 00                	add    %al,(%eax)
    2d10:	2e 09 00             	or     %eax,%cs:(%eax)
    2d13:	00 40 00             	add    %al,0x0(%eax)
    2d16:	00 00                	add    %al,(%eax)
    2d18:	01 00                	add    %eax,(%eax)
    2d1a:	04 00                	add    $0x0,%al
    2d1c:	23 00                	and    (%eax),%eax
    2d1e:	00 00                	add    %al,(%eax)
    2d20:	60                   	pusha  
    2d21:	00 00                	add    %al,(%eax)
    2d23:	00 09                	add    %cl,(%ecx)
    2d25:	00 00                	add    %al,(%eax)
    2d27:	00 14 20             	add    %dl,(%eax,%eiz,1)
	...
    2d36:	00 00                	add    %al,(%eax)
    2d38:	e7 1d                	out    %eax,$0x1d
    2d3a:	00 00                	add    %al,(%eax)
    2d3c:	00 00                	add    %al,(%eax)
    2d3e:	00 00                	add    %al,(%eax)
    2d40:	48                   	dec    %eax
    2d41:	00 00                	add    %al,(%eax)
    2d43:	00 10                	add    %dl,(%eax)
    2d45:	00 00                	add    %al,(%eax)
    2d47:	00 2d 2d 63 6f 6d    	add    %ch,0x6d6f632d
    2d4d:	70 69                	jo     2db8 <fatbinData+0xa30>
    2d4f:	6c                   	insb   (%dx),%es:(%edi)
    2d50:	65                   	gs
    2d51:	2d 6f 6e 6c 79       	sub    $0x796c6e6f,%eax
    2d56:	20 20                	and    %ah,(%eax)
    2d58:	00 11                	add    %dl,(%ecx)
    2d5a:	20 09                	and    %cl,(%ecx)
    2d5c:	28 00                	sub    %al,(%eax)
    2d5e:	00 00                	add    %al,(%eax)
    2d60:	70 72                	jo     2dd4 <fatbinData+0xa4c>
    2d62:	6f                   	outsl  %ds:(%esi),(%dx)
    2d63:	78 79                	js     2dde <fatbinData+0xa56>
    2d65:	2e 63 70 70          	arpl   %si,%cs:0x70(%eax)
    2d69:	00 00                	add    %al,(%eax)
    2d6b:	00 00                	add    %al,(%eax)
    2d6d:	00 00                	add    %al,(%eax)
    2d6f:	00 11                	add    %dl,(%ecx)
    2d71:	0a 01                	or     (%ecx),%al
    2d73:	00 ff                	add    %bh,%bh
    2d75:	5a                   	pop    %edx
    2d76:	2e 76 65             	jbe,pn 2dde <fatbinData+0xa56>
    2d79:	72 73                	jb     2dee <fatbinData+0xa66>
    2d7b:	69 6f 6e 20 34 2e 31 	imul   $0x312e3420,0x6e(%edi),%ebp
    2d82:	0a 2e                	or     (%esi),%ch
    2d84:	74 61                	je     2de7 <fatbinData+0xa5f>
    2d86:	72 67                	jb     2def <fatbinData+0xa67>
    2d88:	65                   	gs
    2d89:	74 20                	je     2dab <fatbinData+0xa23>
    2d8b:	73 6d                	jae    2dfa <fatbinData+0xa72>
    2d8d:	5f                   	pop    %edi
    2d8e:	33 35 0a 2e 61 64    	xor    0x64612e0a,%esi
    2d94:	64                   	fs
    2d95:	72 65                	jb     2dfc <fatbinData+0xa74>
    2d97:	73 73                	jae    2e0c <fatbinData+0xa84>
    2d99:	5f                   	pop    %edi
    2d9a:	73 69                	jae    2e05 <fatbinData+0xa7d>
    2d9c:	7a 65                	jp     2e03 <fatbinData+0xa7b>
    2d9e:	20 33                	and    %dh,(%ebx)
    2da0:	32 0a                	xor    (%edx),%cl
    2da2:	0a 2e                	or     (%esi),%ch
    2da4:	65                   	gs
    2da5:	78 74                	js     2e1b <fatbinData+0xa93>
    2da7:	65                   	gs
    2da8:	72 6e                	jb     2e18 <fatbinData+0xa90>
    2daa:	20 2e                	and    %ch,(%esi)
    2dac:	66                   	data16
    2dad:	75 6e                	jne    2e1d <fatbinData+0xa95>
    2daf:	63 20                	arpl   %sp,(%eax)
    2db1:	5f                   	pop    %edi
    2db2:	5a                   	pop    %edx
    2db3:	31 34 63             	xor    %esi,(%ebx,%eiz,2)
    2db6:	61                   	popa   
    2db7:	6c                   	insb   (%dx),%es:(%edi)
    2db8:	6c                   	insb   (%dx),%es:(%edi)
    2db9:	5f                   	pop    %edi
    2dba:	64                   	fs
    2dbb:	66                   	data16
    2dbc:	73 5f                	jae    2e1d <fatbinData+0xa95>
    2dbe:	66 69 6e 61 6c 69    	imul   $0x696c,0x61(%esi),%bp
    2dc4:	69 69 50 69 53 5f 69 	imul   $0x695f5369,0x50(%ecx),%ebp
    2dcb:	69 53 5f 53 5f 69 0a 	imul   $0xa695f53,0x5f(%ebx),%edx
    2dd2:	28 0a                	sub    %cl,(%edx)
    2dd4:	2e 70 61             	jo,pn  2e38 <fatbinData+0xab0>
    2dd7:	72 61                	jb     2e3a <fatbinData+0xab2>
    2dd9:	6d                   	insl   (%dx),%es:(%edi)
    2dda:	20 2e                	and    %ch,(%esi)
    2ddc:	62 33                	bound  %esi,(%ebx)
    2dde:	32 2f                	xor    (%edi),%ch
    2de0:	00 0e                	add    %cl,(%esi)
    2de2:	11 5f 2c             	adc    %ebx,0x2c(%edi)
    2de5:	00 3f                	add    %bh,(%edi)
    2de7:	5f                   	pop    %edi
    2de8:	30 2c 36             	xor    %ch,(%esi,%esi,1)
    2deb:	00 21                	add    %ah,(%ecx)
    2ded:	1f                   	pop    %ds
    2dee:	31 36                	xor    %esi,(%esi)
    2df0:	00 22                	add    %ah,(%edx)
    2df2:	1f                   	pop    %ds
    2df3:	32 36                	xor    (%esi),%dh
    2df5:	00 22                	add    %ah,(%edx)
    2df7:	1f                   	pop    %ds
    2df8:	33 36                	xor    (%esi),%esi
    2dfa:	00 22                	add    %ah,(%edx)
    2dfc:	1f                   	pop    %ds
    2dfd:	34 36                	xor    $0x36,%al
    2dff:	00 22                	add    %ah,(%edx)
    2e01:	1f                   	pop    %ds
    2e02:	35 36 00 22 1f       	xor    $0x1f220036,%eax
    2e07:	36 36 00 22          	ss add %ah,%ss:(%edx)
    2e0b:	1f                   	pop    %ds
    2e0c:	37                   	aaa    
    2e0d:	36 00 22             	add    %ah,%ss:(%edx)
    2e10:	1f                   	pop    %ds
    2e11:	38 36                	cmp    %dh,(%esi)
    2e13:	00 22                	add    %ah,(%edx)
    2e15:	c3                   	ret    
    2e16:	39 0a                	cmp    %ecx,(%edx)
    2e18:	29 0a                	sub    %ecx,(%edx)
    2e1a:	3b 0a                	cmp    (%edx),%ecx
    2e1c:	0a 2e                	or     (%esi),%ch
    2e1e:	77 65                	ja     2e85 <fatbinData+0xafd>
    2e20:	61                   	popa   
    2e21:	6b 4f 02 18          	imul   $0x18,0x2(%edi),%ecx
    2e25:	28 47 00             	sub    %al,0x0(%edi)
    2e28:	00 12                	add    %dl,(%edx)
    2e2a:	00 fa                	add    %bh,%dl
    2e2c:	05 5f 72 65 74       	add    $0x7465725f,%eax
    2e31:	76 61                	jbe    2e94 <fatbinData+0xb0c>
    2e33:	6c                   	insb   (%dx),%es:(%edi)
    2e34:	30 29                	xor    %ch,(%ecx)
    2e36:	20 63 75             	and    %ah,0x75(%ebx)
    2e39:	64                   	fs
    2e3a:	61                   	popa   
    2e3b:	4d                   	dec    %ebp
    2e3c:	61                   	popa   
    2e3d:	6c                   	insb   (%dx),%es:(%edi)
    2e3e:	6c                   	insb   (%dx),%es:(%edi)
    2e3f:	6f                   	outsl  %ds:(%esi),(%dx)
    2e40:	63 53 02             	arpl   %dx,0x2(%ebx)
    2e43:	06                   	push   %es
    2e44:	18 00                	sbb    %al,(%eax)
    2e46:	0e                   	push   %cs
    2e47:	3d 02 0f 20 00       	cmp    $0x200f02,%eax
    2e4c:	02 f1                	add    %cl,%dh
    2e4e:	0f 31                	rdtsc  
    2e50:	0a 29                	or     (%ecx),%ch
    2e52:	0a 7b 0a             	or     0xa(%ebx),%bh
    2e55:	2e 72 65             	jb,pn  2ebd <fatbinData+0xb35>
    2e58:	67 20 2e 73 33       	and    %ch,0x3373
    2e5d:	32 20                	xor    (%eax),%ah
    2e5f:	25 72 3c 32 3e       	and    $0x3e323c72,%eax
    2e64:	3b 0a                	cmp    (%edx),%ecx
    2e66:	0a 0a                	or     (%edx),%cl
    2e68:	6d                   	insl   (%dx),%es:(%edi)
    2e69:	6f                   	outsl  %ds:(%esi),(%dx)
    2e6a:	76 2e                	jbe    2e9a <fatbinData+0xb12>
    2e6c:	75 11                	jne    2e7f <fatbinData+0xaf7>
    2e6e:	00 92 31 2c 20 33    	add    %dl,0x33202c31(%edx)
    2e74:	30 3b                	xor    %bh,(%ebx)
    2e76:	0a 73 74             	or     0x74(%ebx),%dh
    2e79:	49                   	dec    %ecx
    2e7a:	00 00                	add    %al,(%eax)
    2e7c:	48                   	dec    %eax
    2e7d:	00 28                	add    %ch,(%eax)
    2e7f:	09 5b 8f             	or     %ebx,-0x71(%ebx)
    2e82:	00 40 2b             	add    %al,0x2b(%eax)
    2e85:	30 5d 2c             	xor    %bl,0x2c(%ebp)
    2e88:	28 00                	sub    %al,(%eax)
    2e8a:	8f                   	(bad)  
    2e8b:	3b 0a                	cmp    (%edx),%ecx
    2e8d:	72 65                	jb     2ef4 <fatbinData+0xb6c>
    2e8f:	74 3b                	je     2ecc <fatbinData+0xb44>
    2e91:	0a 7d c6             	or     -0x3a(%ebp),%bh
    2e94:	00 1a                	add    %bl,(%edx)
    2e96:	fe 02                	incb   (%edx)
    2e98:	46                   	inc    %esi
    2e99:	75 6e                	jne    2f09 <fatbinData+0xb81>
    2e9b:	63 47 65             	arpl   %ax,0x65(%edi)
    2e9e:	74 41                	je     2ee1 <fatbinData+0xb59>
    2ea0:	74 74                	je     2f16 <fatbinData+0xb8e>
    2ea2:	72 69                	jb     2f0d <fatbinData+0xb85>
    2ea4:	62 75 74             	bound  %esi,0x74(%ebp)
    2ea7:	65                   	gs
    2ea8:	73 d1                	jae    2e7b <fatbinData+0xaf3>
    2eaa:	00 0d 23 00 0e dc    	add    %cl,0xdc0e0023
    2eb0:	00 0f                	add    %cl,(%edi)
    2eb2:	2b 00                	sub    (%eax),%eax
    2eb4:	06                   	push   %es
    2eb5:	0f e7 00             	movntq %mm0,(%eax)
    2eb8:	75 68                	jne    2f22 <fatbinData+0xb9a>
    2eba:	44                   	inc    %esp
    2ebb:	65                   	gs
    2ebc:	76 69                	jbe    2f27 <fatbinData+0xb9f>
    2ebe:	63 65 9b             	arpl   %sp,-0x65(%ebp)
    2ec1:	00 0e                	add    %cl,(%esi)
    2ec3:	e8 00 0e 24 00       	call   243cc8 <_end+0x228c18>
    2ec8:	0e                   	push   %cs
    2ec9:	e9 00 0f 2c 00       	jmp    2c3dce <_end+0x2a8d1e>
    2ece:	0e                   	push   %cs
    2ecf:	1f                   	pop    %ds
    2ed0:	31 2c 00             	xor    %ebp,(%eax,%eax,1)
    2ed3:	18 1f                	sbb    %bl,(%edi)
    2ed5:	32 16                	xor    (%esi),%dl
    2ed7:	01 6d 32             	add    %ebp,0x32(%ebp)
    2eda:	47                   	inc    %edi
    2edb:	65                   	gs
    2edc:	74 9d                	je     2e7b <fatbinData+0xaf3>
    2ede:	00 0e                	add    %cl,(%esi)
    2ee0:	0d 01 05 1b 00       	or     $0x1b0501,%eax
    2ee5:	04 04                	add    $0x4,%al
    2ee7:	01 0f                	add    %ecx,(%edi)
    2ee9:	ac                   	lods   %ds:(%esi),%al
    2eea:	00 6d fe             	add    %ch,-0x2(%ebp)
    2eed:	1a 4f 63             	sbb    0x63(%edi),%cl
    2ef0:	63 75 70             	arpl   %si,0x70(%ebp)
    2ef3:	61                   	popa   
    2ef4:	6e                   	outsb  %ds:(%esi),(%dx)
    2ef5:	63 79 4d             	arpl   %di,0x4d(%ecx)
    2ef8:	61                   	popa   
    2ef9:	78 41                	js     2f3c <fatbinData+0xbb4>
    2efb:	63 74 69 76          	arpl   %si,0x76(%ecx,%ebp,2)
    2eff:	65                   	gs
    2f00:	42                   	inc    %edx
    2f01:	6c                   	insb   (%dx),%es:(%edi)
    2f02:	6f                   	outsl  %ds:(%esi),(%dx)
    2f03:	63 6b 73             	arpl   %bp,0x73(%ebx)
    2f06:	50                   	push   %eax
    2f07:	65                   	gs
    2f08:	72 4d                	jb     2f57 <fatbinData+0xbcf>
    2f0a:	75 6c                	jne    2f78 <fatbinData+0xbf0>
    2f0c:	74 69                	je     2f77 <fatbinData+0xbef>
    2f0e:	70 72                	jo     2f82 <fatbinData+0xbfa>
    2f10:	6f                   	outsl  %ds:(%esi),(%dx)
    2f11:	63 65 73             	arpl   %sp,0x73(%ebp)
    2f14:	73 6f                	jae    2f85 <fatbinData+0xbfd>
    2f16:	72 cc                	jb     2ee4 <fatbinData+0xb5c>
    2f18:	00 0f                	add    %cl,(%edi)
    2f1a:	3b 00                	cmp    (%eax),%eax
    2f1c:	16                   	push   %ss
    2f1d:	0e                   	push   %cs
    2f1e:	f0 01 0f             	lock add %ecx,(%edi)
    2f21:	43                   	inc    %ebx
    2f22:	00 25 1f 31 43 00    	add    %ah,0x43311f
    2f28:	2f                   	das    
    2f29:	1f                   	pop    %ds
    2f2a:	32 43 00             	xor    0x0(%ebx),%al
    2f2d:	2f                   	das    
    2f2e:	1f                   	pop    %ds
    2f2f:	33 b5 01 43 f0 04    	xor    0x4f04301(%ebp),%esi
    2f35:	76 69                	jbe    2fa0 <fatbinData+0xc18>
    2f37:	73 69                	jae    2fa2 <fatbinData+0xc1a>
    2f39:	62 6c 65 20          	bound  %ebp,0x20(%ebp,%eiz,2)
    2f3d:	2e 65 6e             	cs outsb %cs:%gs:(%esi),(%dx)
    2f40:	74 72                	je     2fb4 <fatbinData+0xc2c>
    2f42:	79 20                	jns    2f64 <fatbinData+0xbdc>
    2f44:	5f                   	pop    %edi
    2f45:	5a                   	pop    %edx
    2f46:	32 32                	xor    (%edx),%dh
    2f48:	5d                   	pop    %ebp
    2f49:	05 e0 69 6e 74       	add    $0x746e69e0,%eax
    2f4e:	65                   	gs
    2f4f:	72 6d                	jb     2fbe <fatbinData+0xc36>
    2f51:	65 64 69 61 72 69 6f 	gs imul $0xb05f6f69,%fs:%gs:0x72(%ecx),%esp
    2f58:	5f b0 
    2f5a:	00 22                	add    %ah,(%edx)
    2f5c:	69 50 64 05 22 69 69 	imul   $0x69692205,0x64(%eax),%edx
    2f63:	6d                   	insl   (%dx),%es:(%edi)
    2f64:	05 06 9b 01 00       	add    $0x19b06,%eax
    2f69:	7d 00                	jge    2f6b <fatbinData+0xbe3>
    2f6b:	0f 38 00 17          	pshufb (%edi),%mm2
    2f6f:	0e                   	push   %cs
    2f70:	98                   	cwtl   
    2f71:	01 0f                	add    %ecx,(%edi)
    2f73:	40                   	inc    %eax
    2f74:	00 22                	add    %ah,(%edx)
    2f76:	1f                   	pop    %ds
    2f77:	31 40 00             	xor    %eax,0x0(%eax)
    2f7a:	2c 1f                	sub    $0x1f,%al
    2f7c:	32 40 00             	xor    0x0(%eax),%al
    2f7f:	2c 1f                	sub    $0x1f,%al
    2f81:	33 40 00             	xor    0x0(%eax),%eax
    2f84:	2c 1f                	sub    $0x1f,%al
    2f86:	34 40                	xor    $0x40,%al
    2f88:	00 2c 1f             	add    %ch,(%edi,%ebx,1)
    2f8b:	35 40 00 2c 1f       	xor    $0x1f2c0040,%eax
    2f90:	36                   	ss
    2f91:	40                   	inc    %eax
    2f92:	00 2c 1f             	add    %ch,(%edi,%ebx,1)
    2f95:	37                   	aaa    
    2f96:	40                   	inc    %eax
    2f97:	00 2c 1f             	add    %ch,(%edi,%ebx,1)
    2f9a:	38 40 00             	cmp    %al,0x0(%eax)
    2f9d:	2c 1f                	sub    $0x1f,%al
    2f9f:	39 40 02             	cmp    %eax,0x2(%eax)
    2fa2:	2d 03 05 05 f1       	sub    $0xf1050503,%eax
    2fa7:	06                   	push   %es
    2fa8:	6c                   	insb   (%dx),%es:(%edi)
    2fa9:	6f                   	outsl  %ds:(%esi),(%dx)
    2faa:	63 61 6c             	arpl   %sp,0x6c(%ecx)
    2fad:	20 2e                	and    %ch,(%esi)
    2faf:	61                   	popa   
    2fb0:	6c                   	insb   (%dx),%es:(%edi)
    2fb1:	69 67 6e 20 34 20 2e 	imul   $0x2e203420,0x6e(%edi),%esp
    2fb8:	62 38                	bound  %edi,(%eax)
    2fba:	20 5f 5f             	and    %bl,0x5f(%edi)
    2fbd:	15 00 d3 5f 64       	adc    $0x645fd300,%eax
    2fc2:	65                   	gs
    2fc3:	70 6f                	jo     3034 <fatbinData+0xcac>
    2fc5:	74 35                	je     2ffc <fatbinData+0xc74>
    2fc7:	5b                   	pop    %ebx
    2fc8:	31 32                	xor    %esi,(%edx)
    2fca:	38 5d 3b             	cmp    %bl,0x3b(%ebp)
    2fcd:	79 03                	jns    2fd2 <fatbinData+0xc4a>
    2fcf:	00 bd 03 3b 25 53    	add    %bh,0x53253b03(%ebp)
    2fd5:	50                   	push   %eax
    2fd6:	0f 00 14 4c          	lldt   (%esp,%ecx,2)
    2fda:	10 00                	adc    %al,(%eax)
    2fdc:	ca 70 72             	lret   $0x7270
    2fdf:	65 64 20 25 70 3c 31 	gs and %ah,%fs:%gs:0x36313c70
    2fe6:	36 
    2fe7:	3e 3b ab 03 3a 31 31 	cmp    %ds:0x31313a03(%ebx),%ebp
    2fee:	37                   	aaa    
    2fef:	ad                   	lods   %ds:(%esi),%eax
    2ff0:	03 4b 53             	add    0x53(%ebx),%ecx
    2ff3:	50                   	push   %eax
    2ff4:	4c                   	dec    %esp
    2ff5:	2c 6a                	sub    $0x6a,%al
    2ff7:	00 43 3b             	add    %al,0x3b(%ebx)
    2ffa:	0a 6c 64 ba          	or     -0x46(%esp,%eiz,2),%ch
    2ffe:	03 02                	add    (%edx),%eax
    3000:	d0 03                	rolb   (%ebx)
    3002:	5f                   	pop    %edi
    3003:	33 32                	xor    (%edx),%esi
    3005:	2c 20                	sub    $0x20,%al
    3007:	5b                   	pop    %ebx
    3008:	5a                   	pop    %edx
    3009:	03 1f                	add    (%edi),%ebx
    300b:	1e                   	push   %ds
    300c:	5d                   	pop    %ebp
    300d:	49                   	dec    %ecx
    300e:	00 1f                	add    %bl,(%edi)
    3010:	33 49 00             	xor    0x0(%ecx),%ecx
    3013:	21 1f                	and    %ebx,(%edi)
    3015:	31 49 00             	xor    %ecx,0x0(%ecx)
    3018:	00 1f                	add    %bl,(%edi)
    301a:	34 49                	xor    $0x49,%al
    301c:	00 21                	add    %ah,(%ecx)
    301e:	1f                   	pop    %ds
    301f:	32 49 00             	xor    0x0(%ecx),%cl
    3022:	00 1f                	add    %bl,(%edi)
    3024:	35 49 00 21 1e       	xor    $0x1e210049,%eax
    3029:	33 49 00             	xor    0x0(%ecx),%ecx
    302c:	1f                   	pop    %ds
    302d:	34 24                	xor    $0x24,%al
    302f:	01 22                	add    %esp,(%edx)
    3031:	1f                   	pop    %ds
    3032:	34 92                	xor    $0x92,%al
    3034:	00 00                	add    %al,(%eax)
    3036:	1f                   	pop    %ds
    3037:	36                   	ss
    3038:	49                   	dec    %ecx
    3039:	00 21                	add    %ah,(%ecx)
    303b:	1f                   	pop    %ds
    303c:	35 49 00 00 1f       	xor    $0x1f000049,%eax
    3041:	37                   	aaa    
    3042:	49                   	dec    %ecx
    3043:	00 21                	add    %ah,(%ecx)
    3045:	1f                   	pop    %ds
    3046:	36                   	ss
    3047:	49                   	dec    %ecx
    3048:	00 00                	add    %al,(%eax)
    304a:	1f                   	pop    %ds
    304b:	38 49 00             	cmp    %cl,0x0(%ecx)
    304e:	21 1f                	and    %ebx,(%edi)
    3050:	37                   	aaa    
    3051:	49                   	dec    %ecx
    3052:	00 00                	add    %al,(%eax)
    3054:	1f                   	pop    %ds
    3055:	39 49 00             	cmp    %ecx,0x0(%ecx)
    3058:	21 1f                	and    %ebx,(%edi)
    305a:	38 6d 01             	cmp    %ch,0x1(%ebp)
    305d:	00 1f                	add    %bl,(%edi)
    305f:	30 49 00             	xor    %cl,0x0(%ecx)
    3062:	21 1f                	and    %ebx,(%edi)
    3064:	39 49 00             	cmp    %ecx,0x0(%ecx)
    3067:	00 1f                	add    %bl,(%edi)
    3069:	31 91 02 22 00 db    	xor    %edx,-0x24ffddfe(%ecx)
    306f:	02 34 61             	add    (%ecx,%eiz,2),%dh
    3072:	64                   	fs
    3073:	64                   	fs
    3074:	45                   	inc    %ebp
    3075:	00 23                	add    %ah,(%ebx)
    3077:	33 2c 48             	xor    (%eax,%ecx,2),%ebp
    307a:	03 29                	add    (%ecx),%ebp
    307c:	36                   	ss
    307d:	34 18                	xor    $0x18,%al
    307f:	00 14 34             	add    %dl,(%esp,%esi,1)
    3082:	18 00                	sbb    %al,(%eax)
    3084:	27                   	daa    
    3085:	30 3b                	xor    %bh,(%ebx)
    3087:	1e                   	push   %ds
    3088:	07                   	pop    %es
    3089:	00 2e                	add    %ch,(%esi)
    308b:	00 68 6e             	add    %ch,0x6e(%eax)
    308e:	74 69                	je     30f9 <fatbinData+0xd71>
    3090:	64                   	fs
    3091:	2e 78 16             	js,pn  30aa <fatbinData+0xd22>
    3094:	00 00                	add    %al,(%eax)
    3096:	2c 00                	sub    $0x0,%al
    3098:	3c 63                	cmp    $0x63,%al
    309a:	74 61                	je     30fd <fatbinData+0xd75>
    309c:	17                   	pop    %ss
    309d:	00 44 35 2c          	add    %al,0x2c(%ebp,%esi,1)
    30a1:	20 25 2c 00 53 61    	and    %ah,0x6153002c
    30a7:	64                   	fs
    30a8:	2e                   	cs
    30a9:	6c                   	insb   (%dx),%es:(%edi)
    30aa:	6f                   	outsl  %ds:(%esi),(%dx)
    30ab:	c9                   	leave  
    30ac:	03 33                	add    (%ebx),%esi
    30ae:	34 35                	xor    $0x35,%al
    30b0:	2c 4b                	sub    $0x4b,%al
    30b2:	00 01                	add    %al,(%ecx)
    30b4:	3a 00                	cmp    (%eax),%al
    30b6:	b0 72                	mov    $0x72,%al
    30b8:	35 3b 0a 73 65       	xor    $0x65730a3b,%eax
    30bd:	74 70                	je     312f <fatbinData+0xda7>
    30bf:	2e 67 65 21 00       	cs and %eax,%cs:%gs:(%bx,%si)
    30c4:	55                   	push   %ebp
    30c5:	09 25 70 31 2c 26    	or     %esp,0x262c3170
    30cb:	00 f2                	add    %dh,%dl
    30cd:	06                   	push   %es
    30ce:	34 32                	xor    $0x32,%al
    30d0:	3b 0a                	cmp    (%edx),%ecx
    30d2:	40                   	inc    %eax
    30d3:	25 70 31 20 62       	and    $0x62203170,%eax
    30d8:	72 61                	jb     313b <fatbinData+0xdb3>
    30da:	20 42 42             	and    %al,0x42(%edx)
    30dd:	35 5f 32 30 3b       	xor    $0x3b30325f,%eax
    30e2:	0a 2f                	or     (%edi),%ch
    30e4:	00 23                	add    %ah,(%ebx)
    30e6:	6c                   	insb   (%dx),%es:(%edi)
    30e7:	74 2f                	je     3118 <fatbinData+0xd90>
    30e9:	00 23                	add    %ah,(%ebx)
    30eb:	32 2c e8             	xor    (%eax,%ebp,8),%ch
    30ee:	03 11                	add    (%ecx),%edx
    30f0:	31 2c 00             	xor    %ebp,(%eax,%eax,1)
    30f3:	15 32 2c 00 28       	adc    $0x28002c32,%eax
    30f8:	34 3b                	xor    $0x3b,%al
    30fa:	da 07                	fiaddl (%edi)
    30fc:	2b 34 36             	sub    (%esi,%esi,1),%esi
    30ff:	cd 00                	int    $0x0
    3101:	22 31                	and    (%ecx),%dh
    3103:	30 63 00             	xor    %ah,0x0(%ebx)
    3106:	40                   	inc    %eax
    3107:	36 3b 0a             	cmp    %ss:(%edx),%ecx
    310a:	0a 2f                	or     (%edi),%ch
    310c:	00 27                	add    %ah,(%edi)
    310e:	33 3a                	xor    (%edx),%edi
    3110:	1d 00 22 36 2c       	sbb    $0x2c362200,%eax
    3115:	22 00                	and    (%eax),%al
    3117:	52                   	push   %edx
    3118:	3b 0a                	cmp    (%edx),%ecx
    311a:	73 68                	jae    3184 <fatbinData+0xdfc>
    311c:	6c                   	insb   (%dx),%es:(%edi)
    311d:	a5                   	movsl  %ds:(%esi),%es:(%edi)
    311e:	04 42                	add    $0x42,%al
    3120:	72 34                	jb     3156 <fatbinData+0xdce>
    3122:	37                   	aaa    
    3123:	2c 1a                	sub    $0x1a,%al
    3125:	00 12                	add    %dl,(%edx)
    3127:	32 2b                	xor    (%ebx),%ch
    3129:	01 03                	add    %eax,(%ebx)
    312b:	cf                   	iret   
    312c:	00 24 38             	add    %ah,(%eax,%edi,1)
    312f:	2c 31                	sub    $0x31,%al
    3131:	01 39                	add    %edi,(%ecx)
    3133:	72 34                	jb     3169 <fatbinData+0xde1>
    3135:	37                   	aaa    
